Archive member included because of file (symbol)

e:/softwares/quartus2/nios2eds/bin/gnu/h-i686-mingw32/bin/../lib/gcc/nios2-elf/4.7.3/mno-hw-mul\libgcc.a(lib2-divmod.o)
                              obj/default/crc_main.o (__udivsi3)
e:/softwares/quartus2/nios2eds/bin/gnu/h-i686-mingw32/bin/../lib/gcc/nios2-elf/4.7.3/mno-hw-mul\libgcc.a(lib2-mul.o)
                              obj/default/crc_main.o (__mulsi3)
e:/softwares/quartus2/nios2eds/bin/gnu/h-i686-mingw32/bin/../lib/gcc/nios2-elf/4.7.3/../../../../../H-i686-mingw32/nios2-elf/lib/mno-hw-mul\libc.a(lib_a-exit.o)
                              obj/default/crc_main.o (exit)
e:/softwares/quartus2/nios2eds/bin/gnu/h-i686-mingw32/bin/../lib/gcc/nios2-elf/4.7.3/../../../../../H-i686-mingw32/nios2-elf/lib/mno-hw-mul\libc.a(lib_a-impure.o)
                              e:/softwares/quartus2/nios2eds/bin/gnu/h-i686-mingw32/bin/../lib/gcc/nios2-elf/4.7.3/../../../../../H-i686-mingw32/nios2-elf/lib/mno-hw-mul\libc.a(lib_a-exit.o) (_global_impure_ptr)
e:/softwares/quartus2/nios2eds/bin/gnu/h-i686-mingw32/bin/../lib/gcc/nios2-elf/4.7.3/../../../../../H-i686-mingw32/nios2-elf/lib/mno-hw-mul\libc.a(lib_a-printf.o)
                              obj/default/crc_main.o (printf)
e:/softwares/quartus2/nios2eds/bin/gnu/h-i686-mingw32/bin/../lib/gcc/nios2-elf/4.7.3/../../../../../H-i686-mingw32/nios2-elf/lib/mno-hw-mul\libc.a(lib_a-puts.o)
                              obj/default/crc_main.o (puts)
e:/softwares/quartus2/nios2eds/bin/gnu/h-i686-mingw32/bin/../lib/gcc/nios2-elf/4.7.3/../../../../../H-i686-mingw32/nios2-elf/lib/mno-hw-mul\libc.a(lib_a-strlen.o)
                              e:/softwares/quartus2/nios2eds/bin/gnu/h-i686-mingw32/bin/../lib/gcc/nios2-elf/4.7.3/../../../../../H-i686-mingw32/nios2-elf/lib/mno-hw-mul\libc.a(lib_a-puts.o) (strlen)
e:/softwares/quartus2/nios2eds/bin/gnu/h-i686-mingw32/bin/../lib/gcc/nios2-elf/4.7.3/../../../../../H-i686-mingw32/nios2-elf/lib/mno-hw-mul\libc.a(lib_a-vfprintf.o)
                              e:/softwares/quartus2/nios2eds/bin/gnu/h-i686-mingw32/bin/../lib/gcc/nios2-elf/4.7.3/../../../../../H-i686-mingw32/nios2-elf/lib/mno-hw-mul\libc.a(lib_a-printf.o) (___vfprintf_internal_r)
e:/softwares/quartus2/nios2eds/bin/gnu/h-i686-mingw32/bin/../lib/gcc/nios2-elf/4.7.3/../../../../../H-i686-mingw32/nios2-elf/lib/mno-hw-mul\libc.a(lib_a-wsetup.o)
                              e:/softwares/quartus2/nios2eds/bin/gnu/h-i686-mingw32/bin/../lib/gcc/nios2-elf/4.7.3/../../../../../H-i686-mingw32/nios2-elf/lib/mno-hw-mul\libc.a(lib_a-vfprintf.o) (__swsetup_r)
e:/softwares/quartus2/nios2eds/bin/gnu/h-i686-mingw32/bin/../lib/gcc/nios2-elf/4.7.3/../../../../../H-i686-mingw32/nios2-elf/lib/mno-hw-mul\libc.a(lib_a-__call_atexit.o)
                              e:/softwares/quartus2/nios2eds/bin/gnu/h-i686-mingw32/bin/../lib/gcc/nios2-elf/4.7.3/../../../../../H-i686-mingw32/nios2-elf/lib/mno-hw-mul\libc.a(lib_a-exit.o) (__call_exitprocs)
e:/softwares/quartus2/nios2eds/bin/gnu/h-i686-mingw32/bin/../lib/gcc/nios2-elf/4.7.3/../../../../../H-i686-mingw32/nios2-elf/lib/mno-hw-mul\libc.a(lib_a-dtoa.o)
                              e:/softwares/quartus2/nios2eds/bin/gnu/h-i686-mingw32/bin/../lib/gcc/nios2-elf/4.7.3/../../../../../H-i686-mingw32/nios2-elf/lib/mno-hw-mul\libc.a(lib_a-vfprintf.o) (_dtoa_r)
e:/softwares/quartus2/nios2eds/bin/gnu/h-i686-mingw32/bin/../lib/gcc/nios2-elf/4.7.3/../../../../../H-i686-mingw32/nios2-elf/lib/mno-hw-mul\libc.a(lib_a-fflush.o)
                              e:/softwares/quartus2/nios2eds/bin/gnu/h-i686-mingw32/bin/../lib/gcc/nios2-elf/4.7.3/../../../../../H-i686-mingw32/nios2-elf/lib/mno-hw-mul\libc.a(lib_a-vfprintf.o) (_fflush_r)
e:/softwares/quartus2/nios2eds/bin/gnu/h-i686-mingw32/bin/../lib/gcc/nios2-elf/4.7.3/../../../../../H-i686-mingw32/nios2-elf/lib/mno-hw-mul\libc.a(lib_a-findfp.o)
                              e:/softwares/quartus2/nios2eds/bin/gnu/h-i686-mingw32/bin/../lib/gcc/nios2-elf/4.7.3/../../../../../H-i686-mingw32/nios2-elf/lib/mno-hw-mul\libc.a(lib_a-vfprintf.o) (__sinit)
e:/softwares/quartus2/nios2eds/bin/gnu/h-i686-mingw32/bin/../lib/gcc/nios2-elf/4.7.3/../../../../../H-i686-mingw32/nios2-elf/lib/mno-hw-mul\libc.a(lib_a-freer.o)
                              e:/softwares/quartus2/nios2eds/bin/gnu/h-i686-mingw32/bin/../lib/gcc/nios2-elf/4.7.3/../../../../../H-i686-mingw32/nios2-elf/lib/mno-hw-mul\libc.a(lib_a-wsetup.o) (_free_r)
e:/softwares/quartus2/nios2eds/bin/gnu/h-i686-mingw32/bin/../lib/gcc/nios2-elf/4.7.3/../../../../../H-i686-mingw32/nios2-elf/lib/mno-hw-mul\libc.a(lib_a-fvwrite.o)
                              e:/softwares/quartus2/nios2eds/bin/gnu/h-i686-mingw32/bin/../lib/gcc/nios2-elf/4.7.3/../../../../../H-i686-mingw32/nios2-elf/lib/mno-hw-mul\libc.a(lib_a-puts.o) (__sfvwrite_r)
e:/softwares/quartus2/nios2eds/bin/gnu/h-i686-mingw32/bin/../lib/gcc/nios2-elf/4.7.3/../../../../../H-i686-mingw32/nios2-elf/lib/mno-hw-mul\libc.a(lib_a-fwalk.o)
                              e:/softwares/quartus2/nios2eds/bin/gnu/h-i686-mingw32/bin/../lib/gcc/nios2-elf/4.7.3/../../../../../H-i686-mingw32/nios2-elf/lib/mno-hw-mul\libc.a(lib_a-findfp.o) (_fwalk)
e:/softwares/quartus2/nios2eds/bin/gnu/h-i686-mingw32/bin/../lib/gcc/nios2-elf/4.7.3/../../../../../H-i686-mingw32/nios2-elf/lib/mno-hw-mul\libc.a(lib_a-locale.o)
                              e:/softwares/quartus2/nios2eds/bin/gnu/h-i686-mingw32/bin/../lib/gcc/nios2-elf/4.7.3/../../../../../H-i686-mingw32/nios2-elf/lib/mno-hw-mul\libc.a(lib_a-vfprintf.o) (_localeconv_r)
e:/softwares/quartus2/nios2eds/bin/gnu/h-i686-mingw32/bin/../lib/gcc/nios2-elf/4.7.3/../../../../../H-i686-mingw32/nios2-elf/lib/mno-hw-mul\libc.a(lib_a-makebuf.o)
                              e:/softwares/quartus2/nios2eds/bin/gnu/h-i686-mingw32/bin/../lib/gcc/nios2-elf/4.7.3/../../../../../H-i686-mingw32/nios2-elf/lib/mno-hw-mul\libc.a(lib_a-wsetup.o) (__smakebuf_r)
e:/softwares/quartus2/nios2eds/bin/gnu/h-i686-mingw32/bin/../lib/gcc/nios2-elf/4.7.3/../../../../../H-i686-mingw32/nios2-elf/lib/mno-hw-mul\libc.a(lib_a-mallocr.o)
                              e:/softwares/quartus2/nios2eds/bin/gnu/h-i686-mingw32/bin/../lib/gcc/nios2-elf/4.7.3/../../../../../H-i686-mingw32/nios2-elf/lib/mno-hw-mul\libc.a(lib_a-findfp.o) (_malloc_r)
e:/softwares/quartus2/nios2eds/bin/gnu/h-i686-mingw32/bin/../lib/gcc/nios2-elf/4.7.3/../../../../../H-i686-mingw32/nios2-elf/lib/mno-hw-mul\libc.a(lib_a-memchr.o)
                              e:/softwares/quartus2/nios2eds/bin/gnu/h-i686-mingw32/bin/../lib/gcc/nios2-elf/4.7.3/../../../../../H-i686-mingw32/nios2-elf/lib/mno-hw-mul\libc.a(lib_a-vfprintf.o) (memchr)
e:/softwares/quartus2/nios2eds/bin/gnu/h-i686-mingw32/bin/../lib/gcc/nios2-elf/4.7.3/../../../../../H-i686-mingw32/nios2-elf/lib/mno-hw-mul\libc.a(lib_a-memcpy.o)
                              e:/softwares/quartus2/nios2eds/bin/gnu/h-i686-mingw32/bin/../lib/gcc/nios2-elf/4.7.3/../../../../../H-i686-mingw32/nios2-elf/lib/mno-hw-mul\libc.a(lib_a-dtoa.o) (memcpy)
e:/softwares/quartus2/nios2eds/bin/gnu/h-i686-mingw32/bin/../lib/gcc/nios2-elf/4.7.3/../../../../../H-i686-mingw32/nios2-elf/lib/mno-hw-mul\libc.a(lib_a-memmove.o)
                              e:/softwares/quartus2/nios2eds/bin/gnu/h-i686-mingw32/bin/../lib/gcc/nios2-elf/4.7.3/../../../../../H-i686-mingw32/nios2-elf/lib/mno-hw-mul\libc.a(lib_a-fvwrite.o) (memmove)
e:/softwares/quartus2/nios2eds/bin/gnu/h-i686-mingw32/bin/../lib/gcc/nios2-elf/4.7.3/../../../../../H-i686-mingw32/nios2-elf/lib/mno-hw-mul\libc.a(lib_a-memset.o)
                              e:/softwares/quartus2/nios2eds/bin/gnu/h-i686-mingw32/bin/../lib/gcc/nios2-elf/4.7.3/../../../../../H-i686-mingw32/nios2-elf/lib/mno-hw-mul\libc.a(lib_a-findfp.o) (memset)
e:/softwares/quartus2/nios2eds/bin/gnu/h-i686-mingw32/bin/../lib/gcc/nios2-elf/4.7.3/../../../../../H-i686-mingw32/nios2-elf/lib/mno-hw-mul\libc.a(lib_a-mprec.o)
                              e:/softwares/quartus2/nios2eds/bin/gnu/h-i686-mingw32/bin/../lib/gcc/nios2-elf/4.7.3/../../../../../H-i686-mingw32/nios2-elf/lib/mno-hw-mul\libc.a(lib_a-dtoa.o) (_Balloc)
e:/softwares/quartus2/nios2eds/bin/gnu/h-i686-mingw32/bin/../lib/gcc/nios2-elf/4.7.3/../../../../../H-i686-mingw32/nios2-elf/lib/mno-hw-mul\libc.a(lib_a-reallocr.o)
                              e:/softwares/quartus2/nios2eds/bin/gnu/h-i686-mingw32/bin/../lib/gcc/nios2-elf/4.7.3/../../../../../H-i686-mingw32/nios2-elf/lib/mno-hw-mul\libc.a(lib_a-fvwrite.o) (_realloc_r)
e:/softwares/quartus2/nios2eds/bin/gnu/h-i686-mingw32/bin/../lib/gcc/nios2-elf/4.7.3/../../../../../H-i686-mingw32/nios2-elf/lib/mno-hw-mul\libc.a(lib_a-s_isinfd.o)
                              e:/softwares/quartus2/nios2eds/bin/gnu/h-i686-mingw32/bin/../lib/gcc/nios2-elf/4.7.3/../../../../../H-i686-mingw32/nios2-elf/lib/mno-hw-mul\libc.a(lib_a-vfprintf.o) (__isinfd)
e:/softwares/quartus2/nios2eds/bin/gnu/h-i686-mingw32/bin/../lib/gcc/nios2-elf/4.7.3/../../../../../H-i686-mingw32/nios2-elf/lib/mno-hw-mul\libc.a(lib_a-s_isnand.o)
                              e:/softwares/quartus2/nios2eds/bin/gnu/h-i686-mingw32/bin/../lib/gcc/nios2-elf/4.7.3/../../../../../H-i686-mingw32/nios2-elf/lib/mno-hw-mul\libc.a(lib_a-vfprintf.o) (__isnand)
e:/softwares/quartus2/nios2eds/bin/gnu/h-i686-mingw32/bin/../lib/gcc/nios2-elf/4.7.3/../../../../../H-i686-mingw32/nios2-elf/lib/mno-hw-mul\libc.a(lib_a-sbrkr.o)
                              e:/softwares/quartus2/nios2eds/bin/gnu/h-i686-mingw32/bin/../lib/gcc/nios2-elf/4.7.3/../../../../../H-i686-mingw32/nios2-elf/lib/mno-hw-mul\libc.a(lib_a-freer.o) (_sbrk_r)
e:/softwares/quartus2/nios2eds/bin/gnu/h-i686-mingw32/bin/../lib/gcc/nios2-elf/4.7.3/../../../../../H-i686-mingw32/nios2-elf/lib/mno-hw-mul\libc.a(lib_a-stdio.o)
                              e:/softwares/quartus2/nios2eds/bin/gnu/h-i686-mingw32/bin/../lib/gcc/nios2-elf/4.7.3/../../../../../H-i686-mingw32/nios2-elf/lib/mno-hw-mul\libc.a(lib_a-findfp.o) (__sread)
e:/softwares/quartus2/nios2eds/bin/gnu/h-i686-mingw32/bin/../lib/gcc/nios2-elf/4.7.3/../../../../../H-i686-mingw32/nios2-elf/lib/mno-hw-mul\libc.a(lib_a-strcmp.o)
                              e:/softwares/quartus2/nios2eds/bin/gnu/h-i686-mingw32/bin/../lib/gcc/nios2-elf/4.7.3/../../../../../H-i686-mingw32/nios2-elf/lib/mno-hw-mul\libc.a(lib_a-locale.o) (strcmp)
e:/softwares/quartus2/nios2eds/bin/gnu/h-i686-mingw32/bin/../lib/gcc/nios2-elf/4.7.3/../../../../../H-i686-mingw32/nios2-elf/lib/mno-hw-mul\libc.a(lib_a-writer.o)
                              e:/softwares/quartus2/nios2eds/bin/gnu/h-i686-mingw32/bin/../lib/gcc/nios2-elf/4.7.3/../../../../../H-i686-mingw32/nios2-elf/lib/mno-hw-mul\libc.a(lib_a-stdio.o) (_write_r)
e:/softwares/quartus2/nios2eds/bin/gnu/h-i686-mingw32/bin/../lib/gcc/nios2-elf/4.7.3/../../../../../H-i686-mingw32/nios2-elf/lib/mno-hw-mul\libc.a(lib_a-callocr.o)
                              e:/softwares/quartus2/nios2eds/bin/gnu/h-i686-mingw32/bin/../lib/gcc/nios2-elf/4.7.3/../../../../../H-i686-mingw32/nios2-elf/lib/mno-hw-mul\libc.a(lib_a-mprec.o) (_calloc_r)
e:/softwares/quartus2/nios2eds/bin/gnu/h-i686-mingw32/bin/../lib/gcc/nios2-elf/4.7.3/../../../../../H-i686-mingw32/nios2-elf/lib/mno-hw-mul\libc.a(lib_a-closer.o)
                              e:/softwares/quartus2/nios2eds/bin/gnu/h-i686-mingw32/bin/../lib/gcc/nios2-elf/4.7.3/../../../../../H-i686-mingw32/nios2-elf/lib/mno-hw-mul\libc.a(lib_a-stdio.o) (_close_r)
e:/softwares/quartus2/nios2eds/bin/gnu/h-i686-mingw32/bin/../lib/gcc/nios2-elf/4.7.3/../../../../../H-i686-mingw32/nios2-elf/lib/mno-hw-mul\libc.a(lib_a-fclose.o)
                              e:/softwares/quartus2/nios2eds/bin/gnu/h-i686-mingw32/bin/../lib/gcc/nios2-elf/4.7.3/../../../../../H-i686-mingw32/nios2-elf/lib/mno-hw-mul\libc.a(lib_a-findfp.o) (fclose)
e:/softwares/quartus2/nios2eds/bin/gnu/h-i686-mingw32/bin/../lib/gcc/nios2-elf/4.7.3/../../../../../H-i686-mingw32/nios2-elf/lib/mno-hw-mul\libc.a(lib_a-fstatr.o)
                              e:/softwares/quartus2/nios2eds/bin/gnu/h-i686-mingw32/bin/../lib/gcc/nios2-elf/4.7.3/../../../../../H-i686-mingw32/nios2-elf/lib/mno-hw-mul\libc.a(lib_a-makebuf.o) (_fstat_r)
e:/softwares/quartus2/nios2eds/bin/gnu/h-i686-mingw32/bin/../lib/gcc/nios2-elf/4.7.3/../../../../../H-i686-mingw32/nios2-elf/lib/mno-hw-mul\libc.a(lib_a-int_errno.o)
                              e:/softwares/quartus2/nios2eds/bin/gnu/h-i686-mingw32/bin/../lib/gcc/nios2-elf/4.7.3/../../../../../H-i686-mingw32/nios2-elf/lib/mno-hw-mul\libc.a(lib_a-sbrkr.o) (errno)
e:/softwares/quartus2/nios2eds/bin/gnu/h-i686-mingw32/bin/../lib/gcc/nios2-elf/4.7.3/../../../../../H-i686-mingw32/nios2-elf/lib/mno-hw-mul\libc.a(lib_a-isattyr.o)
                              e:/softwares/quartus2/nios2eds/bin/gnu/h-i686-mingw32/bin/../lib/gcc/nios2-elf/4.7.3/../../../../../H-i686-mingw32/nios2-elf/lib/mno-hw-mul\libc.a(lib_a-makebuf.o) (_isatty_r)
e:/softwares/quartus2/nios2eds/bin/gnu/h-i686-mingw32/bin/../lib/gcc/nios2-elf/4.7.3/../../../../../H-i686-mingw32/nios2-elf/lib/mno-hw-mul\libc.a(lib_a-lseekr.o)
                              e:/softwares/quartus2/nios2eds/bin/gnu/h-i686-mingw32/bin/../lib/gcc/nios2-elf/4.7.3/../../../../../H-i686-mingw32/nios2-elf/lib/mno-hw-mul\libc.a(lib_a-stdio.o) (_lseek_r)
e:/softwares/quartus2/nios2eds/bin/gnu/h-i686-mingw32/bin/../lib/gcc/nios2-elf/4.7.3/../../../../../H-i686-mingw32/nios2-elf/lib/mno-hw-mul\libc.a(lib_a-readr.o)
                              e:/softwares/quartus2/nios2eds/bin/gnu/h-i686-mingw32/bin/../lib/gcc/nios2-elf/4.7.3/../../../../../H-i686-mingw32/nios2-elf/lib/mno-hw-mul\libc.a(lib_a-stdio.o) (_read_r)
e:/softwares/quartus2/nios2eds/bin/gnu/h-i686-mingw32/bin/../lib/gcc/nios2-elf/4.7.3/mno-hw-mul\libgcc.a(_udivdi3.o)
                              e:/softwares/quartus2/nios2eds/bin/gnu/h-i686-mingw32/bin/../lib/gcc/nios2-elf/4.7.3/../../../../../H-i686-mingw32/nios2-elf/lib/mno-hw-mul\libc.a(lib_a-vfprintf.o) (__udivdi3)
e:/softwares/quartus2/nios2eds/bin/gnu/h-i686-mingw32/bin/../lib/gcc/nios2-elf/4.7.3/mno-hw-mul\libgcc.a(_umoddi3.o)
                              e:/softwares/quartus2/nios2eds/bin/gnu/h-i686-mingw32/bin/../lib/gcc/nios2-elf/4.7.3/../../../../../H-i686-mingw32/nios2-elf/lib/mno-hw-mul\libc.a(lib_a-vfprintf.o) (__umoddi3)
e:/softwares/quartus2/nios2eds/bin/gnu/h-i686-mingw32/bin/../lib/gcc/nios2-elf/4.7.3/mno-hw-mul\libgcc.a(_addsub_df.o)
                              e:/softwares/quartus2/nios2eds/bin/gnu/h-i686-mingw32/bin/../lib/gcc/nios2-elf/4.7.3/../../../../../H-i686-mingw32/nios2-elf/lib/mno-hw-mul\libc.a(lib_a-dtoa.o) (__adddf3)
e:/softwares/quartus2/nios2eds/bin/gnu/h-i686-mingw32/bin/../lib/gcc/nios2-elf/4.7.3/mno-hw-mul\libgcc.a(_mul_df.o)
                              e:/softwares/quartus2/nios2eds/bin/gnu/h-i686-mingw32/bin/../lib/gcc/nios2-elf/4.7.3/../../../../../H-i686-mingw32/nios2-elf/lib/mno-hw-mul\libc.a(lib_a-dtoa.o) (__muldf3)
e:/softwares/quartus2/nios2eds/bin/gnu/h-i686-mingw32/bin/../lib/gcc/nios2-elf/4.7.3/mno-hw-mul\libgcc.a(_div_df.o)
                              e:/softwares/quartus2/nios2eds/bin/gnu/h-i686-mingw32/bin/../lib/gcc/nios2-elf/4.7.3/../../../../../H-i686-mingw32/nios2-elf/lib/mno-hw-mul\libc.a(lib_a-dtoa.o) (__divdf3)
e:/softwares/quartus2/nios2eds/bin/gnu/h-i686-mingw32/bin/../lib/gcc/nios2-elf/4.7.3/mno-hw-mul\libgcc.a(_eq_df.o)
                              e:/softwares/quartus2/nios2eds/bin/gnu/h-i686-mingw32/bin/../lib/gcc/nios2-elf/4.7.3/../../../../../H-i686-mingw32/nios2-elf/lib/mno-hw-mul\libc.a(lib_a-vfprintf.o) (__eqdf2)
e:/softwares/quartus2/nios2eds/bin/gnu/h-i686-mingw32/bin/../lib/gcc/nios2-elf/4.7.3/mno-hw-mul\libgcc.a(_ne_df.o)
                              e:/softwares/quartus2/nios2eds/bin/gnu/h-i686-mingw32/bin/../lib/gcc/nios2-elf/4.7.3/../../../../../H-i686-mingw32/nios2-elf/lib/mno-hw-mul\libc.a(lib_a-vfprintf.o) (__nedf2)
e:/softwares/quartus2/nios2eds/bin/gnu/h-i686-mingw32/bin/../lib/gcc/nios2-elf/4.7.3/mno-hw-mul\libgcc.a(_gt_df.o)
                              e:/softwares/quartus2/nios2eds/bin/gnu/h-i686-mingw32/bin/../lib/gcc/nios2-elf/4.7.3/../../../../../H-i686-mingw32/nios2-elf/lib/mno-hw-mul\libc.a(lib_a-dtoa.o) (__gtdf2)
e:/softwares/quartus2/nios2eds/bin/gnu/h-i686-mingw32/bin/../lib/gcc/nios2-elf/4.7.3/mno-hw-mul\libgcc.a(_ge_df.o)
                              e:/softwares/quartus2/nios2eds/bin/gnu/h-i686-mingw32/bin/../lib/gcc/nios2-elf/4.7.3/../../../../../H-i686-mingw32/nios2-elf/lib/mno-hw-mul\libc.a(lib_a-dtoa.o) (__gedf2)
e:/softwares/quartus2/nios2eds/bin/gnu/h-i686-mingw32/bin/../lib/gcc/nios2-elf/4.7.3/mno-hw-mul\libgcc.a(_lt_df.o)
                              e:/softwares/quartus2/nios2eds/bin/gnu/h-i686-mingw32/bin/../lib/gcc/nios2-elf/4.7.3/../../../../../H-i686-mingw32/nios2-elf/lib/mno-hw-mul\libc.a(lib_a-vfprintf.o) (__ltdf2)
e:/softwares/quartus2/nios2eds/bin/gnu/h-i686-mingw32/bin/../lib/gcc/nios2-elf/4.7.3/mno-hw-mul\libgcc.a(_si_to_df.o)
                              e:/softwares/quartus2/nios2eds/bin/gnu/h-i686-mingw32/bin/../lib/gcc/nios2-elf/4.7.3/../../../../../H-i686-mingw32/nios2-elf/lib/mno-hw-mul\libc.a(lib_a-dtoa.o) (__floatsidf)
e:/softwares/quartus2/nios2eds/bin/gnu/h-i686-mingw32/bin/../lib/gcc/nios2-elf/4.7.3/mno-hw-mul\libgcc.a(_df_to_si.o)
                              e:/softwares/quartus2/nios2eds/bin/gnu/h-i686-mingw32/bin/../lib/gcc/nios2-elf/4.7.3/../../../../../H-i686-mingw32/nios2-elf/lib/mno-hw-mul\libc.a(lib_a-dtoa.o) (__fixdfsi)
e:/softwares/quartus2/nios2eds/bin/gnu/h-i686-mingw32/bin/../lib/gcc/nios2-elf/4.7.3/mno-hw-mul\libgcc.a(_thenan_df.o)
                              e:/softwares/quartus2/nios2eds/bin/gnu/h-i686-mingw32/bin/../lib/gcc/nios2-elf/4.7.3/mno-hw-mul\libgcc.a(_addsub_df.o) (__thenan_df)
e:/softwares/quartus2/nios2eds/bin/gnu/h-i686-mingw32/bin/../lib/gcc/nios2-elf/4.7.3/mno-hw-mul\libgcc.a(_usi_to_df.o)
                              e:/softwares/quartus2/nios2eds/bin/gnu/h-i686-mingw32/bin/../lib/gcc/nios2-elf/4.7.3/../../../../../H-i686-mingw32/nios2-elf/lib/mno-hw-mul\libc.a(lib_a-dtoa.o) (__floatunsidf)
e:/softwares/quartus2/nios2eds/bin/gnu/h-i686-mingw32/bin/../lib/gcc/nios2-elf/4.7.3/mno-hw-mul\libgcc.a(_muldi3.o)
                              e:/softwares/quartus2/nios2eds/bin/gnu/h-i686-mingw32/bin/../lib/gcc/nios2-elf/4.7.3/mno-hw-mul\libgcc.a(_mul_df.o) (__muldi3)
e:/softwares/quartus2/nios2eds/bin/gnu/h-i686-mingw32/bin/../lib/gcc/nios2-elf/4.7.3/mno-hw-mul\libgcc.a(_clz.o)
                              e:/softwares/quartus2/nios2eds/bin/gnu/h-i686-mingw32/bin/../lib/gcc/nios2-elf/4.7.3/mno-hw-mul\libgcc.a(_udivdi3.o) (__clz_tab)
e:/softwares/quartus2/nios2eds/bin/gnu/h-i686-mingw32/bin/../lib/gcc/nios2-elf/4.7.3/mno-hw-mul\libgcc.a(_clzsi2.o)
                              e:/softwares/quartus2/nios2eds/bin/gnu/h-i686-mingw32/bin/../lib/gcc/nios2-elf/4.7.3/mno-hw-mul\libgcc.a(_si_to_df.o) (__clzsi2)
e:/softwares/quartus2/nios2eds/bin/gnu/h-i686-mingw32/bin/../lib/gcc/nios2-elf/4.7.3/mno-hw-mul\libgcc.a(_pack_df.o)
                              e:/softwares/quartus2/nios2eds/bin/gnu/h-i686-mingw32/bin/../lib/gcc/nios2-elf/4.7.3/mno-hw-mul\libgcc.a(_addsub_df.o) (__pack_d)
e:/softwares/quartus2/nios2eds/bin/gnu/h-i686-mingw32/bin/../lib/gcc/nios2-elf/4.7.3/mno-hw-mul\libgcc.a(_unpack_df.o)
                              e:/softwares/quartus2/nios2eds/bin/gnu/h-i686-mingw32/bin/../lib/gcc/nios2-elf/4.7.3/mno-hw-mul\libgcc.a(_addsub_df.o) (__unpack_d)
e:/softwares/quartus2/nios2eds/bin/gnu/h-i686-mingw32/bin/../lib/gcc/nios2-elf/4.7.3/mno-hw-mul\libgcc.a(_fpcmp_parts_df.o)
                              e:/softwares/quartus2/nios2eds/bin/gnu/h-i686-mingw32/bin/../lib/gcc/nios2-elf/4.7.3/mno-hw-mul\libgcc.a(_eq_df.o) (__fpcmp_parts_d)
e:/softwares/quartus2/nios2eds/bin/gnu/h-i686-mingw32/bin/../lib/gcc/nios2-elf/4.7.3/mno-hw-mul\libgcc.a(_lshrdi3.o)
                              e:/softwares/quartus2/nios2eds/bin/gnu/h-i686-mingw32/bin/../lib/gcc/nios2-elf/4.7.3/mno-hw-mul\libgcc.a(_pack_df.o) (__lshrdi3)
e:/softwares/quartus2/nios2eds/bin/gnu/h-i686-mingw32/bin/../lib/gcc/nios2-elf/4.7.3/mno-hw-mul\libgcc.a(_ashldi3.o)
                              e:/softwares/quartus2/nios2eds/bin/gnu/h-i686-mingw32/bin/../lib/gcc/nios2-elf/4.7.3/mno-hw-mul\libgcc.a(_pack_df.o) (__ashldi3)
../lab_crc_bsp/\libhal_bsp.a(alt_close.o)
                              e:/softwares/quartus2/nios2eds/bin/gnu/h-i686-mingw32/bin/../lib/gcc/nios2-elf/4.7.3/../../../../../H-i686-mingw32/nios2-elf/lib/mno-hw-mul\libc.a(lib_a-closer.o) (close)
../lab_crc_bsp/\libhal_bsp.a(alt_dev.o)
                              ../lab_crc_bsp/\libhal_bsp.a(alt_close.o) (alt_fd_list)
../lab_crc_bsp/\libhal_bsp.a(alt_errno.o)
                              ../lab_crc_bsp/\libhal_bsp.a(alt_close.o) (alt_errno)
../lab_crc_bsp/\libhal_bsp.a(alt_exit.o)
                              e:/softwares/quartus2/nios2eds/bin/gnu/h-i686-mingw32/bin/../lib/gcc/nios2-elf/4.7.3/../../../../../H-i686-mingw32/nios2-elf/lib/mno-hw-mul\libc.a(lib_a-exit.o) (_exit)
../lab_crc_bsp/\libhal_bsp.a(alt_fstat.o)
                              e:/softwares/quartus2/nios2eds/bin/gnu/h-i686-mingw32/bin/../lib/gcc/nios2-elf/4.7.3/../../../../../H-i686-mingw32/nios2-elf/lib/mno-hw-mul\libc.a(lib_a-fstatr.o) (fstat)
../lab_crc_bsp/\libhal_bsp.a(alt_isatty.o)
                              e:/softwares/quartus2/nios2eds/bin/gnu/h-i686-mingw32/bin/../lib/gcc/nios2-elf/4.7.3/../../../../../H-i686-mingw32/nios2-elf/lib/mno-hw-mul\libc.a(lib_a-isattyr.o) (isatty)
../lab_crc_bsp/\libhal_bsp.a(alt_load.o)
                              ../lab_crc_bsp//obj/HAL/src/crt0.o (alt_load)
../lab_crc_bsp/\libhal_bsp.a(alt_lseek.o)
                              e:/softwares/quartus2/nios2eds/bin/gnu/h-i686-mingw32/bin/../lib/gcc/nios2-elf/4.7.3/../../../../../H-i686-mingw32/nios2-elf/lib/mno-hw-mul\libc.a(lib_a-lseekr.o) (lseek)
../lab_crc_bsp/\libhal_bsp.a(alt_main.o)
                              ../lab_crc_bsp//obj/HAL/src/crt0.o (alt_main)
../lab_crc_bsp/\libhal_bsp.a(alt_malloc_lock.o)
                              e:/softwares/quartus2/nios2eds/bin/gnu/h-i686-mingw32/bin/../lib/gcc/nios2-elf/4.7.3/../../../../../H-i686-mingw32/nios2-elf/lib/mno-hw-mul\libc.a(lib_a-freer.o) (__malloc_lock)
../lab_crc_bsp/\libhal_bsp.a(alt_read.o)
                              e:/softwares/quartus2/nios2eds/bin/gnu/h-i686-mingw32/bin/../lib/gcc/nios2-elf/4.7.3/../../../../../H-i686-mingw32/nios2-elf/lib/mno-hw-mul\libc.a(lib_a-readr.o) (read)
../lab_crc_bsp/\libhal_bsp.a(alt_release_fd.o)
                              ../lab_crc_bsp/\libhal_bsp.a(alt_close.o) (alt_release_fd)
../lab_crc_bsp/\libhal_bsp.a(alt_sbrk.o)
                              e:/softwares/quartus2/nios2eds/bin/gnu/h-i686-mingw32/bin/../lib/gcc/nios2-elf/4.7.3/../../../../../H-i686-mingw32/nios2-elf/lib/mno-hw-mul\libc.a(lib_a-sbrkr.o) (sbrk)
../lab_crc_bsp/\libhal_bsp.a(alt_write.o)
                              e:/softwares/quartus2/nios2eds/bin/gnu/h-i686-mingw32/bin/../lib/gcc/nios2-elf/4.7.3/../../../../../H-i686-mingw32/nios2-elf/lib/mno-hw-mul\libc.a(lib_a-writer.o) (write)
../lab_crc_bsp/\libhal_bsp.a(alt_sys_init.o)
                              ../lab_crc_bsp/\libhal_bsp.a(alt_main.o) (alt_irq_init)
../lab_crc_bsp/\libhal_bsp.a(altera_avalon_jtag_uart_fd.o)
                              ../lab_crc_bsp/\libhal_bsp.a(alt_sys_init.o) (altera_avalon_jtag_uart_read_fd)
../lab_crc_bsp/\libhal_bsp.a(altera_avalon_jtag_uart_init.o)
                              ../lab_crc_bsp/\libhal_bsp.a(alt_sys_init.o) (altera_avalon_jtag_uart_init)
../lab_crc_bsp/\libhal_bsp.a(altera_avalon_jtag_uart_ioctl.o)
                              ../lab_crc_bsp/\libhal_bsp.a(altera_avalon_jtag_uart_fd.o) (altera_avalon_jtag_uart_ioctl)
../lab_crc_bsp/\libhal_bsp.a(altera_avalon_jtag_uart_read.o)
                              ../lab_crc_bsp/\libhal_bsp.a(altera_avalon_jtag_uart_fd.o) (altera_avalon_jtag_uart_read)
../lab_crc_bsp/\libhal_bsp.a(altera_avalon_jtag_uart_write.o)
                              ../lab_crc_bsp/\libhal_bsp.a(altera_avalon_jtag_uart_fd.o) (altera_avalon_jtag_uart_write)
../lab_crc_bsp/\libhal_bsp.a(altera_avalon_timer_sc.o)
                              ../lab_crc_bsp/\libhal_bsp.a(alt_sys_init.o) (alt_avalon_timer_sc_init)
../lab_crc_bsp/\libhal_bsp.a(altera_avalon_timer_ts.o)
                              obj/default/crc_main.o (alt_timestamp_start)
../lab_crc_bsp/\libhal_bsp.a(altera_avalon_timer_vars.o)
                              ../lab_crc_bsp/\libhal_bsp.a(alt_sys_init.o) (altera_avalon_timer_ts_base)
../lab_crc_bsp/\libhal_bsp.a(alt_alarm_start.o)
                              ../lab_crc_bsp/\libhal_bsp.a(altera_avalon_jtag_uart_init.o) (alt_alarm_start)
../lab_crc_bsp/\libhal_bsp.a(alt_dcache_flush_all.o)
                              ../lab_crc_bsp/\libhal_bsp.a(alt_load.o) (alt_dcache_flush_all)
../lab_crc_bsp/\libhal_bsp.a(alt_dev_llist_insert.o)
                              ../lab_crc_bsp/\libhal_bsp.a(alt_sys_init.o) (alt_dev_llist_insert)
../lab_crc_bsp/\libhal_bsp.a(alt_do_ctors.o)
                              ../lab_crc_bsp/\libhal_bsp.a(alt_main.o) (_do_ctors)
../lab_crc_bsp/\libhal_bsp.a(alt_do_dtors.o)
                              ../lab_crc_bsp/\libhal_bsp.a(alt_main.o) (_do_dtors)
../lab_crc_bsp/\libhal_bsp.a(alt_icache_flush_all.o)
                              ../lab_crc_bsp/\libhal_bsp.a(alt_load.o) (alt_icache_flush_all)
../lab_crc_bsp/\libhal_bsp.a(alt_iic.o)
                              ../lab_crc_bsp/\libhal_bsp.a(altera_avalon_jtag_uart_init.o) (alt_ic_isr_register)
../lab_crc_bsp/\libhal_bsp.a(alt_iic_isr_register.o)
                              ../lab_crc_bsp/\libhal_bsp.a(alt_iic.o) (alt_iic_isr_register)
../lab_crc_bsp/\libhal_bsp.a(alt_io_redirect.o)
                              ../lab_crc_bsp/\libhal_bsp.a(alt_main.o) (alt_io_redirect)
../lab_crc_bsp/\libhal_bsp.a(alt_irq_entry.o)
                              ../lab_crc_bsp/\libhal_bsp.a(alt_iic_isr_register.o) (alt_irq_entry)
../lab_crc_bsp/\libhal_bsp.a(alt_irq_handler.o)
                              ../lab_crc_bsp/\libhal_bsp.a(alt_iic_isr_register.o) (alt_irq)
../lab_crc_bsp/\libhal_bsp.a(alt_irq_vars.o)
                              ../lab_crc_bsp/\libhal_bsp.a(alt_iic.o) (alt_irq_active)
../lab_crc_bsp/\libhal_bsp.a(alt_open.o)
                              ../lab_crc_bsp/\libhal_bsp.a(alt_io_redirect.o) (open)
../lab_crc_bsp/\libhal_bsp.a(alt_tick.o)
                              ../lab_crc_bsp/\libhal_bsp.a(altera_avalon_jtag_uart_init.o) (_alt_tick_rate)
../lab_crc_bsp/\libhal_bsp.a(altera_nios2_qsys_irq.o)
                              ../lab_crc_bsp/\libhal_bsp.a(alt_sys_init.o) (altera_nios2_qsys_irq_init)
../lab_crc_bsp/\libhal_bsp.a(alt_exception_entry.o)
                              ../lab_crc_bsp/\libhal_bsp.a(alt_irq_entry.o) (alt_exception)
../lab_crc_bsp/\libhal_bsp.a(alt_find_dev.o)
                              ../lab_crc_bsp/\libhal_bsp.a(alt_open.o) (alt_find_dev)
../lab_crc_bsp/\libhal_bsp.a(alt_find_file.o)
                              ../lab_crc_bsp/\libhal_bsp.a(alt_open.o) (alt_find_file)
../lab_crc_bsp/\libhal_bsp.a(alt_get_fd.o)
                              ../lab_crc_bsp/\libhal_bsp.a(alt_open.o) (alt_get_fd)
e:/softwares/quartus2/nios2eds/bin/gnu/h-i686-mingw32/bin/../lib/gcc/nios2-elf/4.7.3/../../../../../H-i686-mingw32/nios2-elf/lib/mno-hw-mul\libc.a(lib_a-atexit.o)
                              ../lab_crc_bsp/\libhal_bsp.a(alt_main.o) (atexit)
e:/softwares/quartus2/nios2eds/bin/gnu/h-i686-mingw32/bin/../lib/gcc/nios2-elf/4.7.3/../../../../../H-i686-mingw32/nios2-elf/lib/mno-hw-mul\libc.a(lib_a-memcmp.o)
                              ../lab_crc_bsp/\libhal_bsp.a(alt_find_dev.o) (memcmp)
e:/softwares/quartus2/nios2eds/bin/gnu/h-i686-mingw32/bin/../lib/gcc/nios2-elf/4.7.3/../../../../../H-i686-mingw32/nios2-elf/lib/mno-hw-mul\libc.a(lib_a-__atexit.o)
                              e:/softwares/quartus2/nios2eds/bin/gnu/h-i686-mingw32/bin/../lib/gcc/nios2-elf/4.7.3/../../../../../H-i686-mingw32/nios2-elf/lib/mno-hw-mul\libc.a(lib_a-atexit.o) (__register_exitproc)

Allocating common symbols
Common symbol       size              file

alt_irq             0x100             ../lab_crc_bsp/\libhal_bsp.a(alt_irq_handler.o)
errno               0x4               e:/softwares/quartus2/nios2eds/bin/gnu/h-i686-mingw32/bin/../lib/gcc/nios2-elf/4.7.3/../../../../../H-i686-mingw32/nios2-elf/lib/mno-hw-mul\libc.a(lib_a-int_errno.o)
data_buffer_region  0x2000            obj/default/crc_main.o
_atexit0            0x190             e:/softwares/quartus2/nios2eds/bin/gnu/h-i686-mingw32/bin/../lib/gcc/nios2-elf/4.7.3/../../../../../H-i686-mingw32/nios2-elf/lib/mno-hw-mul\libc.a(lib_a-atexit.o)
crcTable            0x400             obj/default/crc.o

Memory Configuration

Name             Origin             Length             Attributes
reset            0x00000000         0x00000020
sdram_controller 0x00000020         0x07ffffe0
*default*        0x00000000         0xffffffff

Linker script and memory map

LOAD ../lab_crc_bsp//obj/HAL/src/crt0.o
LOAD obj/default/ci_crc.o
LOAD obj/default/crc.o
LOAD obj/default/crc_main.o
LOAD e:/softwares/quartus2/nios2eds/bin/gnu/h-i686-mingw32/bin/../lib/gcc/nios2-elf/4.7.3/../../../../../H-i686-mingw32/nios2-elf/lib/mno-hw-mul\libstdc++.a
LOAD e:/softwares/quartus2/nios2eds/bin/gnu/h-i686-mingw32/bin/../lib/gcc/nios2-elf/4.7.3/../../../../../H-i686-mingw32/nios2-elf/lib/mno-hw-mul\libm.a
LOAD e:/softwares/quartus2/nios2eds/bin/gnu/h-i686-mingw32/bin/../lib/gcc/nios2-elf/4.7.3/mno-hw-mul\libgcc.a
START GROUP
LOAD e:/softwares/quartus2/nios2eds/bin/gnu/h-i686-mingw32/bin/../lib/gcc/nios2-elf/4.7.3/../../../../../H-i686-mingw32/nios2-elf/lib/mno-hw-mul\libc.a
LOAD e:/softwares/quartus2/nios2eds/bin/gnu/h-i686-mingw32/bin/../lib/gcc/nios2-elf/4.7.3/mno-hw-mul\libgcc.a
LOAD ../lab_crc_bsp/\libhal_bsp.a
END GROUP
LOAD e:/softwares/quartus2/nios2eds/bin/gnu/h-i686-mingw32/bin/../lib/gcc/nios2-elf/4.7.3/mno-hw-mul\libgcc.a
                0x00000000                __alt_mem_sdram_controller = 0x0

.entry          0x00000000       0x20
 *(.entry)
 .entry         0x00000000       0x20 ../lab_crc_bsp//obj/HAL/src/crt0.o
                0x00000000                __reset

.exceptions     0x00000020      0x198
                0x00000020                PROVIDE (__ram_exceptions_start, ABSOLUTE (.))
                0x00000020                . = ALIGN (0x20)
 *(.irq)
 *(.exceptions.entry.label)
 .exceptions.entry.label
                0x00000020        0x0 ../lab_crc_bsp/\libhal_bsp.a(alt_irq_entry.o)
                0x00000020                alt_irq_entry
 .exceptions.entry.label
                0x00000020        0x0 ../lab_crc_bsp/\libhal_bsp.a(alt_exception_entry.o)
                0x00000020                alt_exception
 *(.exceptions.entry.user)
 *(.exceptions.entry.ecc_fatal)
 *(.exceptions.entry)
 .exceptions.entry
                0x00000020       0x54 ../lab_crc_bsp/\libhal_bsp.a(alt_exception_entry.o)
 *(.exceptions.irqtest.user)
 *(.exceptions.irqtest)
 .exceptions.irqtest
                0x00000074       0x10 ../lab_crc_bsp/\libhal_bsp.a(alt_irq_entry.o)
 *(.exceptions.irqhandler.user)
 *(.exceptions.irqhandler)
 .exceptions.irqhandler
                0x00000084        0x4 ../lab_crc_bsp/\libhal_bsp.a(alt_irq_entry.o)
 *(.exceptions.irqreturn.user)
 *(.exceptions.irqreturn)
 .exceptions.irqreturn
                0x00000088        0x4 ../lab_crc_bsp/\libhal_bsp.a(alt_irq_entry.o)
 *(.exceptions.notirq.label)
 .exceptions.notirq.label
                0x0000008c        0x0 ../lab_crc_bsp/\libhal_bsp.a(alt_irq_entry.o)
 *(.exceptions.notirq.user)
 *(.exceptions.notirq)
 .exceptions.notirq
                0x0000008c        0x8 ../lab_crc_bsp/\libhal_bsp.a(alt_exception_entry.o)
 *(.exceptions.soft.user)
 *(.exceptions.soft)
 *(.exceptions.unknown.user)
 *(.exceptions.unknown)
 .exceptions.unknown
                0x00000094        0x4 ../lab_crc_bsp/\libhal_bsp.a(alt_exception_entry.o)
 *(.exceptions.exit.label)
 .exceptions.exit.label
                0x00000098        0x0 ../lab_crc_bsp/\libhal_bsp.a(alt_irq_entry.o)
 .exceptions.exit.label
                0x00000098        0x0 ../lab_crc_bsp/\libhal_bsp.a(alt_exception_entry.o)
 *(.exceptions.exit.user)
 *(.exceptions.exit)
 .exceptions.exit
                0x00000098       0x54 ../lab_crc_bsp/\libhal_bsp.a(alt_exception_entry.o)
 *(.exceptions)
 .exceptions    0x000000ec       0xcc ../lab_crc_bsp/\libhal_bsp.a(alt_irq_handler.o)
                0x000000ec                alt_irq_handler
                0x000001b8                PROVIDE (__ram_exceptions_end, ABSOLUTE (.))
                0x00000020                PROVIDE (__flash_exceptions_start, LOADADDR (.exceptions))

.text           0x000001b8     0xcb3c
                0x000001b8                PROVIDE (stext, ABSOLUTE (.))
 *(.interp)
 *(.hash)
 *(.dynsym)
 *(.dynstr)
 *(.gnu.version)
 *(.gnu.version_d)
 *(.gnu.version_r)
 *(.rel.init)
 *(.rela.init)
 *(.rel.text .rel.text.* .rel.gnu.linkonce.t.*)
 *(.rela.text .rela.text.* .rela.gnu.linkonce.t.*)
 *(.rel.fini)
 *(.rela.fini)
 *(.rel.rodata .rel.rodata.* .rel.gnu.linkonce.r.*)
 *(.rela.rodata .rela.rodata.* .rela.gnu.linkonce.r.*)
 *(.rel.data .rel.data.* .rel.gnu.linkonce.d.*)
 *(.rela.data .rela.data.* .rela.gnu.linkonce.d.*)
 *(.rel.tdata .rel.tdata.* .rel.gnu.linkonce.td.*)
 *(.rela.tdata .rela.tdata.* .rela.gnu.linkonce.td.*)
 *(.rel.tbss .rel.tbss.* .rel.gnu.linkonce.tb.*)
 *(.rela.tbss .rela.tbss.* .rela.gnu.linkonce.tb.*)
 *(.rel.ctors)
 *(.rela.ctors)
 *(.rel.dtors)
 *(.rela.dtors)
 *(.rel.got)
 *(.rela.got)
 *(.rel.sdata .rel.sdata.* .rel.gnu.linkonce.s.*)
 *(.rela.sdata .rela.sdata.* .rela.gnu.linkonce.s.*)
 *(.rel.sbss .rel.sbss.* .rel.gnu.linkonce.sb.*)
 *(.rela.sbss .rela.sbss.* .rela.gnu.linkonce.sb.*)
 *(.rel.sdata2 .rel.sdata2.* .rel.gnu.linkonce.s2.*)
 *(.rela.sdata2 .rela.sdata2.* .rela.gnu.linkonce.s2.*)
 *(.rel.sbss2 .rel.sbss2.* .rel.gnu.linkonce.sb2.*)
 *(.rela.sbss2 .rela.sbss2.* .rela.gnu.linkonce.sb2.*)
 *(.rel.bss .rel.bss.* .rel.gnu.linkonce.b.*)
 *(.rela.bss .rela.bss.* .rela.gnu.linkonce.b.*)
 *(.rel.plt)
 *(.rela.plt)
 *(.rel.dyn)
 *(.init)
 *(.plt)
 *(.text .stub .text.* .gnu.linkonce.t.*)
 .text          0x000001b8       0x3c ../lab_crc_bsp//obj/HAL/src/crt0.o
                0x000001b8                _start
 .text          0x000001f4      0x100 obj/default/ci_crc.o
                0x000001f4                crcCI
 .text          0x000002f4      0x2f8 obj/default/crc.o
                0x00000380                crcSlow
                0x0000046c                crcInit
                0x00000528                crcFast
 .text          0x000005ec      0x6e4 obj/default/crc_main.o
                0x000005ec                main
 .text          0x00000cd0      0x130 e:/softwares/quartus2/nios2eds/bin/gnu/h-i686-mingw32/bin/../lib/gcc/nios2-elf/4.7.3/mno-hw-mul\libgcc.a(lib2-divmod.o)
                0x00000d44                __divsi3
                0x00000d94                __modsi3
                0x00000df0                __udivsi3
                0x00000df8                __umodsi3
 .text          0x00000e00       0x28 e:/softwares/quartus2/nios2eds/bin/gnu/h-i686-mingw32/bin/../lib/gcc/nios2-elf/4.7.3/mno-hw-mul\libgcc.a(lib2-mul.o)
                0x00000e00                __mulsi3
 .text          0x00000e28       0x38 e:/softwares/quartus2/nios2eds/bin/gnu/h-i686-mingw32/bin/../lib/gcc/nios2-elf/4.7.3/../../../../../H-i686-mingw32/nios2-elf/lib/mno-hw-mul\libc.a(lib_a-exit.o)
                0x00000e28                exit
 .text          0x00000e60        0x0 e:/softwares/quartus2/nios2eds/bin/gnu/h-i686-mingw32/bin/../lib/gcc/nios2-elf/4.7.3/../../../../../H-i686-mingw32/nios2-elf/lib/mno-hw-mul\libc.a(lib_a-impure.o)
 .text          0x00000e60       0x68 e:/softwares/quartus2/nios2eds/bin/gnu/h-i686-mingw32/bin/../lib/gcc/nios2-elf/4.7.3/../../../../../H-i686-mingw32/nios2-elf/lib/mno-hw-mul\libc.a(lib_a-printf.o)
                0x00000e60                _printf_r
                0x00000e8c                printf
 .text          0x00000ec8       0x98 e:/softwares/quartus2/nios2eds/bin/gnu/h-i686-mingw32/bin/../lib/gcc/nios2-elf/4.7.3/../../../../../H-i686-mingw32/nios2-elf/lib/mno-hw-mul\libc.a(lib_a-puts.o)
                0x00000ec8                _puts_r
                0x00000f4c                puts
 .text          0x00000f60       0x8c e:/softwares/quartus2/nios2eds/bin/gnu/h-i686-mingw32/bin/../lib/gcc/nios2-elf/4.7.3/../../../../../H-i686-mingw32/nios2-elf/lib/mno-hw-mul\libc.a(lib_a-strlen.o)
                0x00000f60                strlen
 .text          0x00000fec     0x1ed4 e:/softwares/quartus2/nios2eds/bin/gnu/h-i686-mingw32/bin/../lib/gcc/nios2-elf/4.7.3/../../../../../H-i686-mingw32/nios2-elf/lib/mno-hw-mul\libc.a(lib_a-vfprintf.o)
                0x00001020                ___vfprintf_internal_r
                0x00002e9c                __vfprintf_internal
 .text          0x00002ec0      0x174 e:/softwares/quartus2/nios2eds/bin/gnu/h-i686-mingw32/bin/../lib/gcc/nios2-elf/4.7.3/../../../../../H-i686-mingw32/nios2-elf/lib/mno-hw-mul\libc.a(lib_a-wsetup.o)
                0x00002ec0                __swsetup_r
 .text          0x00003034      0x1a0 e:/softwares/quartus2/nios2eds/bin/gnu/h-i686-mingw32/bin/../lib/gcc/nios2-elf/4.7.3/../../../../../H-i686-mingw32/nios2-elf/lib/mno-hw-mul\libc.a(lib_a-__call_atexit.o)
                0x00003034                __call_exitprocs
 .text          0x000031d4     0x1858 e:/softwares/quartus2/nios2eds/bin/gnu/h-i686-mingw32/bin/../lib/gcc/nios2-elf/4.7.3/../../../../../H-i686-mingw32/nios2-elf/lib/mno-hw-mul\libc.a(lib_a-dtoa.o)
                0x00003410                _dtoa_r
 .text          0x00004a2c      0x218 e:/softwares/quartus2/nios2eds/bin/gnu/h-i686-mingw32/bin/../lib/gcc/nios2-elf/4.7.3/../../../../../H-i686-mingw32/nios2-elf/lib/mno-hw-mul\libc.a(lib_a-fflush.o)
                0x00004a2c                _fflush_r
                0x00004c14                fflush
 .text          0x00004c44      0x2ec e:/softwares/quartus2/nios2eds/bin/gnu/h-i686-mingw32/bin/../lib/gcc/nios2-elf/4.7.3/../../../../../H-i686-mingw32/nios2-elf/lib/mno-hw-mul\libc.a(lib_a-findfp.o)
                0x00004c54                _cleanup_r
                0x00004c60                __sfmoreglue
                0x00004cd8                _cleanup
                0x00004ce8                __sinit
                0x00004df4                __sfp
                0x00004ef0                __sfp_lock_acquire
                0x00004ef4                __sfp_lock_release
                0x00004ef8                __sinit_lock_acquire
                0x00004efc                __sinit_lock_release
                0x00004f00                __fp_lock_all
                0x00004f18                __fp_unlock_all
 .text          0x00004f30      0x40c e:/softwares/quartus2/nios2eds/bin/gnu/h-i686-mingw32/bin/../lib/gcc/nios2-elf/4.7.3/../../../../../H-i686-mingw32/nios2-elf/lib/mno-hw-mul\libc.a(lib_a-freer.o)
                0x00004f30                _malloc_trim_r
                0x0000506c                _free_r
 .text          0x0000533c      0x4e4 e:/softwares/quartus2/nios2eds/bin/gnu/h-i686-mingw32/bin/../lib/gcc/nios2-elf/4.7.3/../../../../../H-i686-mingw32/nios2-elf/lib/mno-hw-mul\libc.a(lib_a-fvwrite.o)
                0x0000533c                __sfvwrite_r
 .text          0x00005820      0x160 e:/softwares/quartus2/nios2eds/bin/gnu/h-i686-mingw32/bin/../lib/gcc/nios2-elf/4.7.3/../../../../../H-i686-mingw32/nios2-elf/lib/mno-hw-mul\libc.a(lib_a-fwalk.o)
                0x00005820                _fwalk
                0x000058c8                _fwalk_reent
 .text          0x00005980       0xdc e:/softwares/quartus2/nios2eds/bin/gnu/h-i686-mingw32/bin/../lib/gcc/nios2-elf/4.7.3/../../../../../H-i686-mingw32/nios2-elf/lib/mno-hw-mul\libc.a(lib_a-locale.o)
                0x00005980                _setlocale_r
                0x00005a1c                __locale_charset
                0x00005a28                _localeconv_r
                0x00005a34                setlocale
                0x00005a50                localeconv
 .text          0x00005a5c      0x1a8 e:/softwares/quartus2/nios2eds/bin/gnu/h-i686-mingw32/bin/../lib/gcc/nios2-elf/4.7.3/../../../../../H-i686-mingw32/nios2-elf/lib/mno-hw-mul\libc.a(lib_a-makebuf.o)
                0x00005a5c                __smakebuf_r
 .text          0x00005c04      0x784 e:/softwares/quartus2/nios2eds/bin/gnu/h-i686-mingw32/bin/../lib/gcc/nios2-elf/4.7.3/../../../../../H-i686-mingw32/nios2-elf/lib/mno-hw-mul\libc.a(lib_a-mallocr.o)
                0x00005c04                _malloc_r
 .text          0x00006388       0xf8 e:/softwares/quartus2/nios2eds/bin/gnu/h-i686-mingw32/bin/../lib/gcc/nios2-elf/4.7.3/../../../../../H-i686-mingw32/nios2-elf/lib/mno-hw-mul\libc.a(lib_a-memchr.o)
                0x00006388                memchr
 .text          0x00006480      0x140 e:/softwares/quartus2/nios2eds/bin/gnu/h-i686-mingw32/bin/../lib/gcc/nios2-elf/4.7.3/../../../../../H-i686-mingw32/nios2-elf/lib/mno-hw-mul\libc.a(lib_a-memcpy.o)
                0x00006480                memcpy
 .text          0x000065c0      0x18c e:/softwares/quartus2/nios2eds/bin/gnu/h-i686-mingw32/bin/../lib/gcc/nios2-elf/4.7.3/../../../../../H-i686-mingw32/nios2-elf/lib/mno-hw-mul\libc.a(lib_a-memmove.o)
                0x000065c0                memmove
 .text          0x0000674c       0xdc e:/softwares/quartus2/nios2eds/bin/gnu/h-i686-mingw32/bin/../lib/gcc/nios2-elf/4.7.3/../../../../../H-i686-mingw32/nios2-elf/lib/mno-hw-mul\libc.a(lib_a-memset.o)
                0x0000674c                memset
 .text          0x00006828     0x1050 e:/softwares/quartus2/nios2eds/bin/gnu/h-i686-mingw32/bin/../lib/gcc/nios2-elf/4.7.3/../../../../../H-i686-mingw32/nios2-elf/lib/mno-hw-mul\libc.a(lib_a-mprec.o)
                0x00006828                _Balloc
                0x000068d0                _Bfree
                0x000068f8                __multadd
                0x00006a3c                __s2b
                0x00006b40                __hi0bits
                0x00006ba8                __lo0bits
                0x00006c58                __i2b
                0x00006c94                __multiply
                0x00006eec                __pow5mult
                0x00007018                __lshift
                0x00007174                __mcmp
                0x000071cc                __mdiff
                0x00007374                __ulp
                0x000073d4                __b2d
                0x0000751c                __d2b
                0x00007660                __ratio
                0x00007704                _mprec_log10
                0x00007778                __copybits
                0x000077f4                __any_on
 .text          0x00007878      0x5fc e:/softwares/quartus2/nios2eds/bin/gnu/h-i686-mingw32/bin/../lib/gcc/nios2-elf/4.7.3/../../../../../H-i686-mingw32/nios2-elf/lib/mno-hw-mul\libc.a(lib_a-reallocr.o)
                0x00007878                _realloc_r
 .text          0x00007e74       0x38 e:/softwares/quartus2/nios2eds/bin/gnu/h-i686-mingw32/bin/../lib/gcc/nios2-elf/4.7.3/../../../../../H-i686-mingw32/nios2-elf/lib/mno-hw-mul\libc.a(lib_a-s_isinfd.o)
                0x00007e74                __isinfd
 .text          0x00007eac       0x2c e:/softwares/quartus2/nios2eds/bin/gnu/h-i686-mingw32/bin/../lib/gcc/nios2-elf/4.7.3/../../../../../H-i686-mingw32/nios2-elf/lib/mno-hw-mul\libc.a(lib_a-s_isnand.o)
                0x00007eac                __isnand
 .text          0x00007ed8       0x64 e:/softwares/quartus2/nios2eds/bin/gnu/h-i686-mingw32/bin/../lib/gcc/nios2-elf/4.7.3/../../../../../H-i686-mingw32/nios2-elf/lib/mno-hw-mul\libc.a(lib_a-sbrkr.o)
                0x00007ed8                _sbrk_r
 .text          0x00007f3c      0x140 e:/softwares/quartus2/nios2eds/bin/gnu/h-i686-mingw32/bin/../lib/gcc/nios2-elf/4.7.3/../../../../../H-i686-mingw32/nios2-elf/lib/mno-hw-mul\libc.a(lib_a-stdio.o)
                0x00007f3c                __sread
                0x00007f90                __swrite
                0x00008018                __sseek
                0x00008074                __sclose
 .text          0x0000807c       0xa4 e:/softwares/quartus2/nios2eds/bin/gnu/h-i686-mingw32/bin/../lib/gcc/nios2-elf/4.7.3/../../../../../H-i686-mingw32/nios2-elf/lib/mno-hw-mul\libc.a(lib_a-strcmp.o)
                0x0000807c                strcmp
 .text          0x00008120       0x6c e:/softwares/quartus2/nios2eds/bin/gnu/h-i686-mingw32/bin/../lib/gcc/nios2-elf/4.7.3/../../../../../H-i686-mingw32/nios2-elf/lib/mno-hw-mul\libc.a(lib_a-writer.o)
                0x00008120                _write_r
 .text          0x0000818c       0xcc e:/softwares/quartus2/nios2eds/bin/gnu/h-i686-mingw32/bin/../lib/gcc/nios2-elf/4.7.3/../../../../../H-i686-mingw32/nios2-elf/lib/mno-hw-mul\libc.a(lib_a-callocr.o)
                0x0000818c                _calloc_r
 .text          0x00008258       0x64 e:/softwares/quartus2/nios2eds/bin/gnu/h-i686-mingw32/bin/../lib/gcc/nios2-elf/4.7.3/../../../../../H-i686-mingw32/nios2-elf/lib/mno-hw-mul\libc.a(lib_a-closer.o)
                0x00008258                _close_r
 .text          0x000082bc      0x150 e:/softwares/quartus2/nios2eds/bin/gnu/h-i686-mingw32/bin/../lib/gcc/nios2-elf/4.7.3/../../../../../H-i686-mingw32/nios2-elf/lib/mno-hw-mul\libc.a(lib_a-fclose.o)
                0x000082bc                _fclose_r
                0x000083f8                fclose
 .text          0x0000840c       0x68 e:/softwares/quartus2/nios2eds/bin/gnu/h-i686-mingw32/bin/../lib/gcc/nios2-elf/4.7.3/../../../../../H-i686-mingw32/nios2-elf/lib/mno-hw-mul\libc.a(lib_a-fstatr.o)
                0x0000840c                _fstat_r
 .text          0x00008474        0x0 e:/softwares/quartus2/nios2eds/bin/gnu/h-i686-mingw32/bin/../lib/gcc/nios2-elf/4.7.3/../../../../../H-i686-mingw32/nios2-elf/lib/mno-hw-mul\libc.a(lib_a-int_errno.o)
 .text          0x00008474       0x64 e:/softwares/quartus2/nios2eds/bin/gnu/h-i686-mingw32/bin/../lib/gcc/nios2-elf/4.7.3/../../../../../H-i686-mingw32/nios2-elf/lib/mno-hw-mul\libc.a(lib_a-isattyr.o)
                0x00008474                _isatty_r
 .text          0x000084d8       0x6c e:/softwares/quartus2/nios2eds/bin/gnu/h-i686-mingw32/bin/../lib/gcc/nios2-elf/4.7.3/../../../../../H-i686-mingw32/nios2-elf/lib/mno-hw-mul\libc.a(lib_a-lseekr.o)
                0x000084d8                _lseek_r
 .text          0x00008544       0x6c e:/softwares/quartus2/nios2eds/bin/gnu/h-i686-mingw32/bin/../lib/gcc/nios2-elf/4.7.3/../../../../../H-i686-mingw32/nios2-elf/lib/mno-hw-mul\libc.a(lib_a-readr.o)
                0x00008544                _read_r
 .text          0x000085b0      0x650 e:/softwares/quartus2/nios2eds/bin/gnu/h-i686-mingw32/bin/../lib/gcc/nios2-elf/4.7.3/mno-hw-mul\libgcc.a(_udivdi3.o)
                0x000085b0                __udivdi3
 .text          0x00008c00      0x628 e:/softwares/quartus2/nios2eds/bin/gnu/h-i686-mingw32/bin/../lib/gcc/nios2-elf/4.7.3/mno-hw-mul\libgcc.a(_umoddi3.o)
                0x00008c00                __umoddi3
 .text          0x00009228      0x408 e:/softwares/quartus2/nios2eds/bin/gnu/h-i686-mingw32/bin/../lib/gcc/nios2-elf/4.7.3/mno-hw-mul\libgcc.a(_addsub_df.o)
                0x0000957c                __adddf3
                0x000095d0                __subdf3
 .text          0x00009630      0x2e4 e:/softwares/quartus2/nios2eds/bin/gnu/h-i686-mingw32/bin/../lib/gcc/nios2-elf/4.7.3/mno-hw-mul\libgcc.a(_mul_df.o)
                0x00009630                __muldf3
 .text          0x00009914      0x1b4 e:/softwares/quartus2/nios2eds/bin/gnu/h-i686-mingw32/bin/../lib/gcc/nios2-elf/4.7.3/mno-hw-mul\libgcc.a(_div_df.o)
                0x00009914                __divdf3
 .text          0x00009ac8       0x5c e:/softwares/quartus2/nios2eds/bin/gnu/h-i686-mingw32/bin/../lib/gcc/nios2-elf/4.7.3/mno-hw-mul\libgcc.a(_eq_df.o)
                0x00009ac8                __eqdf2
 .text          0x00009b24       0x5c e:/softwares/quartus2/nios2eds/bin/gnu/h-i686-mingw32/bin/../lib/gcc/nios2-elf/4.7.3/mno-hw-mul\libgcc.a(_ne_df.o)
                0x00009b24                __nedf2
 .text          0x00009b80       0x64 e:/softwares/quartus2/nios2eds/bin/gnu/h-i686-mingw32/bin/../lib/gcc/nios2-elf/4.7.3/mno-hw-mul\libgcc.a(_gt_df.o)
                0x00009b80                __gtdf2
 .text          0x00009be4       0x64 e:/softwares/quartus2/nios2eds/bin/gnu/h-i686-mingw32/bin/../lib/gcc/nios2-elf/4.7.3/mno-hw-mul\libgcc.a(_ge_df.o)
                0x00009be4                __gedf2
 .text          0x00009c48       0x5c e:/softwares/quartus2/nios2eds/bin/gnu/h-i686-mingw32/bin/../lib/gcc/nios2-elf/4.7.3/mno-hw-mul\libgcc.a(_lt_df.o)
                0x00009c48                __ltdf2
 .text          0x00009ca4       0xd4 e:/softwares/quartus2/nios2eds/bin/gnu/h-i686-mingw32/bin/../lib/gcc/nios2-elf/4.7.3/mno-hw-mul\libgcc.a(_si_to_df.o)
                0x00009ca4                __floatsidf
 .text          0x00009d78       0xd4 e:/softwares/quartus2/nios2eds/bin/gnu/h-i686-mingw32/bin/../lib/gcc/nios2-elf/4.7.3/mno-hw-mul\libgcc.a(_df_to_si.o)
                0x00009d78                __fixdfsi
 .text          0x00009e4c        0x0 e:/softwares/quartus2/nios2eds/bin/gnu/h-i686-mingw32/bin/../lib/gcc/nios2-elf/4.7.3/mno-hw-mul\libgcc.a(_thenan_df.o)
 .text          0x00009e4c      0x11c e:/softwares/quartus2/nios2eds/bin/gnu/h-i686-mingw32/bin/../lib/gcc/nios2-elf/4.7.3/mno-hw-mul\libgcc.a(_usi_to_df.o)
                0x00009e4c                __floatunsidf
 .text          0x00009f68      0x110 e:/softwares/quartus2/nios2eds/bin/gnu/h-i686-mingw32/bin/../lib/gcc/nios2-elf/4.7.3/mno-hw-mul\libgcc.a(_muldi3.o)
                0x00009f68                __muldi3
 .text          0x0000a078        0x0 e:/softwares/quartus2/nios2eds/bin/gnu/h-i686-mingw32/bin/../lib/gcc/nios2-elf/4.7.3/mno-hw-mul\libgcc.a(_clz.o)
 .text          0x0000a078       0xac e:/softwares/quartus2/nios2eds/bin/gnu/h-i686-mingw32/bin/../lib/gcc/nios2-elf/4.7.3/mno-hw-mul\libgcc.a(_clzsi2.o)
                0x0000a078                __clzsi2
 .text          0x0000a124      0x224 e:/softwares/quartus2/nios2eds/bin/gnu/h-i686-mingw32/bin/../lib/gcc/nios2-elf/4.7.3/mno-hw-mul\libgcc.a(_pack_df.o)
                0x0000a124                __pack_d
 .text          0x0000a348      0x104 e:/softwares/quartus2/nios2eds/bin/gnu/h-i686-mingw32/bin/../lib/gcc/nios2-elf/4.7.3/mno-hw-mul\libgcc.a(_unpack_df.o)
                0x0000a348                __unpack_d
 .text          0x0000a44c       0xd0 e:/softwares/quartus2/nios2eds/bin/gnu/h-i686-mingw32/bin/../lib/gcc/nios2-elf/4.7.3/mno-hw-mul\libgcc.a(_fpcmp_parts_df.o)
                0x0000a44c                __fpcmp_parts_d
 .text          0x0000a51c       0x44 e:/softwares/quartus2/nios2eds/bin/gnu/h-i686-mingw32/bin/../lib/gcc/nios2-elf/4.7.3/mno-hw-mul\libgcc.a(_lshrdi3.o)
                0x0000a51c                __lshrdi3
 .text          0x0000a560       0x44 e:/softwares/quartus2/nios2eds/bin/gnu/h-i686-mingw32/bin/../lib/gcc/nios2-elf/4.7.3/mno-hw-mul\libgcc.a(_ashldi3.o)
                0x0000a560                __ashldi3
 .text          0x0000a5a4      0x11c ../lab_crc_bsp/\libhal_bsp.a(alt_close.o)
                0x0000a5f4                close
 .text          0x0000a6c0       0x2c ../lab_crc_bsp/\libhal_bsp.a(alt_dev.o)
 .text          0x0000a6ec        0x0 ../lab_crc_bsp/\libhal_bsp.a(alt_errno.o)
 .text          0x0000a6ec       0x3c ../lab_crc_bsp/\libhal_bsp.a(alt_exit.o)
                0x0000a6ec                _exit
 .text          0x0000a728      0x100 ../lab_crc_bsp/\libhal_bsp.a(alt_fstat.o)
                0x0000a778                fstat
 .text          0x0000a828       0xf4 ../lab_crc_bsp/\libhal_bsp.a(alt_isatty.o)
                0x0000a878                isatty
 .text          0x0000a91c       0xec ../lab_crc_bsp/\libhal_bsp.a(alt_load.o)
                0x0000a988                alt_load
 .text          0x0000aa08      0x124 ../lab_crc_bsp/\libhal_bsp.a(alt_lseek.o)
                0x0000aa58                lseek
 .text          0x0000ab2c       0x78 ../lab_crc_bsp/\libhal_bsp.a(alt_main.o)
                0x0000ab2c                alt_main
 .text          0x0000aba4       0x40 ../lab_crc_bsp/\libhal_bsp.a(alt_malloc_lock.o)
                0x0000aba4                __malloc_lock
                0x0000abc4                __malloc_unlock
 .text          0x0000abe4      0x144 ../lab_crc_bsp/\libhal_bsp.a(alt_read.o)
                0x0000ac34                read
 .text          0x0000ad28       0x80 ../lab_crc_bsp/\libhal_bsp.a(alt_release_fd.o)
                0x0000ad28                alt_release_fd
 .text          0x0000ada8       0xb0 ../lab_crc_bsp/\libhal_bsp.a(alt_sbrk.o)
                0x0000ada8                sbrk
 .text          0x0000ae58      0x140 ../lab_crc_bsp/\libhal_bsp.a(alt_write.o)
                0x0000aea8                write
 .text          0x0000af98       0xf0 ../lab_crc_bsp/\libhal_bsp.a(alt_sys_init.o)
                0x0000afd0                alt_irq_init
                0x0000b004                alt_sys_init
 .text          0x0000b088      0x164 ../lab_crc_bsp/\libhal_bsp.a(altera_avalon_jtag_uart_fd.o)
                0x0000b088                altera_avalon_jtag_uart_read_fd
                0x0000b0e8                altera_avalon_jtag_uart_write_fd
                0x0000b148                altera_avalon_jtag_uart_close_fd
                0x0000b198                altera_avalon_jtag_uart_ioctl_fd
 .text          0x0000b1ec      0x3d0 ../lab_crc_bsp/\libhal_bsp.a(altera_avalon_jtag_uart_init.o)
                0x0000b1ec                altera_avalon_jtag_uart_init
                0x0000b554                altera_avalon_jtag_uart_close
 .text          0x0000b5bc       0xf4 ../lab_crc_bsp/\libhal_bsp.a(altera_avalon_jtag_uart_ioctl.o)
                0x0000b5bc                altera_avalon_jtag_uart_ioctl
 .text          0x0000b6b0      0x218 ../lab_crc_bsp/\libhal_bsp.a(altera_avalon_jtag_uart_read.o)
                0x0000b6b0                altera_avalon_jtag_uart_read
 .text          0x0000b8c8      0x224 ../lab_crc_bsp/\libhal_bsp.a(altera_avalon_jtag_uart_write.o)
                0x0000b8c8                altera_avalon_jtag_uart_write
 .text          0x0000baec       0xfc ../lab_crc_bsp/\libhal_bsp.a(altera_avalon_timer_sc.o)
                0x0000bb60                alt_avalon_timer_sc_init
 .text          0x0000bbe8      0x140 ../lab_crc_bsp/\libhal_bsp.a(altera_avalon_timer_ts.o)
                0x0000bbe8                alt_timestamp_start
                0x0000bc70                alt_timestamp
                0x0000bd00                alt_timestamp_freq
 .text          0x0000bd28        0x0 ../lab_crc_bsp/\libhal_bsp.a(altera_avalon_timer_vars.o)
 .text          0x0000bd28      0x140 ../lab_crc_bsp/\libhal_bsp.a(alt_alarm_start.o)
                0x0000bd28                alt_alarm_start
 .text          0x0000be68       0x1c ../lab_crc_bsp/\libhal_bsp.a(alt_dcache_flush_all.o)
                0x0000be68                alt_dcache_flush_all
 .text          0x0000be84       0xf0 ../lab_crc_bsp/\libhal_bsp.a(alt_dev_llist_insert.o)
                0x0000bed4                alt_dev_llist_insert
 .text          0x0000bf74       0x5c ../lab_crc_bsp/\libhal_bsp.a(alt_do_ctors.o)
                0x0000bf74                _do_ctors
 .text          0x0000bfd0       0x5c ../lab_crc_bsp/\libhal_bsp.a(alt_do_dtors.o)
                0x0000bfd0                _do_dtors
 .text          0x0000c02c       0x1c ../lab_crc_bsp/\libhal_bsp.a(alt_icache_flush_all.o)
                0x0000c02c                alt_icache_flush_all
 .text          0x0000c048      0x1d8 ../lab_crc_bsp/\libhal_bsp.a(alt_iic.o)
                0x0000c048                alt_ic_isr_register
                0x0000c098                alt_ic_irq_enable
                0x0000c134                alt_ic_irq_disable
                0x0000c1d4                alt_ic_irq_enabled
 .text          0x0000c220       0xf0 ../lab_crc_bsp/\libhal_bsp.a(alt_iic_isr_register.o)
                0x0000c220                alt_iic_isr_register
 .text          0x0000c310      0x158 ../lab_crc_bsp/\libhal_bsp.a(alt_io_redirect.o)
                0x0000c3f0                alt_io_redirect
 .text          0x0000c468        0x0 ../lab_crc_bsp/\libhal_bsp.a(alt_irq_entry.o)
 .text          0x0000c468        0x0 ../lab_crc_bsp/\libhal_bsp.a(alt_irq_handler.o)
 .text          0x0000c468        0x0 ../lab_crc_bsp/\libhal_bsp.a(alt_irq_vars.o)
 .text          0x0000c468      0x298 ../lab_crc_bsp/\libhal_bsp.a(alt_open.o)
                0x0000c5a8                open
 .text          0x0000c700      0x19c ../lab_crc_bsp/\libhal_bsp.a(alt_tick.o)
                0x0000c700                alt_alarm_stop
                0x0000c798                alt_tick
 .text          0x0000c89c       0x20 ../lab_crc_bsp/\libhal_bsp.a(altera_nios2_qsys_irq.o)
                0x0000c89c                altera_nios2_qsys_irq_init
 .text          0x0000c8bc        0x0 ../lab_crc_bsp/\libhal_bsp.a(alt_exception_entry.o)
 .text          0x0000c8bc       0x90 ../lab_crc_bsp/\libhal_bsp.a(alt_find_dev.o)
                0x0000c8bc                alt_find_dev
 .text          0x0000c94c      0x114 ../lab_crc_bsp/\libhal_bsp.a(alt_find_file.o)
                0x0000c94c                alt_find_file
 .text          0x0000ca60       0xd4 ../lab_crc_bsp/\libhal_bsp.a(alt_get_fd.o)
                0x0000ca60                alt_get_fd
 .text          0x0000cb34       0x14 e:/softwares/quartus2/nios2eds/bin/gnu/h-i686-mingw32/bin/../lib/gcc/nios2-elf/4.7.3/../../../../../H-i686-mingw32/nios2-elf/lib/mno-hw-mul\libc.a(lib_a-atexit.o)
                0x0000cb34                atexit
 .text          0x0000cb48       0x7c e:/softwares/quartus2/nios2eds/bin/gnu/h-i686-mingw32/bin/../lib/gcc/nios2-elf/4.7.3/../../../../../H-i686-mingw32/nios2-elf/lib/mno-hw-mul\libc.a(lib_a-memcmp.o)
                0x0000cb48                memcmp
 .text          0x0000cbc4      0x130 e:/softwares/quartus2/nios2eds/bin/gnu/h-i686-mingw32/bin/../lib/gcc/nios2-elf/4.7.3/../../../../../H-i686-mingw32/nios2-elf/lib/mno-hw-mul\libc.a(lib_a-__atexit.o)
                0x0000cbc4                __register_exitproc
 *(.gnu.warning.*)
 *(.fini)
                0x0000ccf4                PROVIDE (__etext, ABSOLUTE (.))
                0x0000ccf4                PROVIDE (_etext, ABSOLUTE (.))
                0x0000ccf4                PROVIDE (etext, ABSOLUTE (.))
 *(.eh_frame_hdr)
                0x0000ccf4                . = ALIGN (0x4)
                0x0000ccf4                PROVIDE (__preinit_array_start, ABSOLUTE (.))
 *(.preinit_array)
                0x0000ccf4                PROVIDE (__preinit_array_end, ABSOLUTE (.))
                0x0000ccf4                PROVIDE (__init_array_start, ABSOLUTE (.))
 *(.init_array)
                0x0000ccf4                PROVIDE (__init_array_end, ABSOLUTE (.))
                0x0000ccf4                PROVIDE (__fini_array_start, ABSOLUTE (.))
 *(.fini_array)
                0x0000ccf4                PROVIDE (__fini_array_end, ABSOLUTE (.))
 *(.eh_frame)
 *(.gcc_except_table .gcc_except_table.*)
 *(.dynamic)
                0x0000ccf4                PROVIDE (__CTOR_LIST__, ABSOLUTE (.))
 *(.ctors)
 *(SORT(.ctors.*))
                0x0000ccf4                PROVIDE (__CTOR_END__, ABSOLUTE (.))
                0x0000ccf4                PROVIDE (__DTOR_LIST__, ABSOLUTE (.))
 *(.dtors)
 *(SORT(.dtors.*))
                0x0000ccf4                PROVIDE (__DTOR_END__, ABSOLUTE (.))
 *(.jcr)
                0x0000ccf4                . = ALIGN (0x4)

.rodata         0x0000ccf4      0x958
                0x0000ccf4                PROVIDE (__ram_rodata_start, ABSOLUTE (.))
                0x0000ccf4                . = ALIGN (0x4)
 *(.rodata .rodata.* .gnu.linkonce.r.*)
 .rodata        0x0000ccf4      0x638 obj/default/crc_main.o
 .rodata.str1.4
                0x0000d32c        0x2 e:/softwares/quartus2/nios2eds/bin/gnu/h-i686-mingw32/bin/../lib/gcc/nios2-elf/4.7.3/../../../../../H-i686-mingw32/nios2-elf/lib/mno-hw-mul\libc.a(lib_a-impure.o)
                                  0x4 (size before relaxing)
 *fill*         0x0000d32e        0x2 
 .rodata.str1.4
                0x0000d330        0x2 e:/softwares/quartus2/nios2eds/bin/gnu/h-i686-mingw32/bin/../lib/gcc/nios2-elf/4.7.3/../../../../../H-i686-mingw32/nios2-elf/lib/mno-hw-mul\libc.a(lib_a-puts.o)
                                  0x4 (size before relaxing)
 *fill*         0x0000d332        0x2 
 .rodata.str1.4
                0x0000d334       0x42 e:/softwares/quartus2/nios2eds/bin/gnu/h-i686-mingw32/bin/../lib/gcc/nios2-elf/4.7.3/../../../../../H-i686-mingw32/nios2-elf/lib/mno-hw-mul\libc.a(lib_a-vfprintf.o)
                                 0x44 (size before relaxing)
 .rodata        0x0000d376       0x20 e:/softwares/quartus2/nios2eds/bin/gnu/h-i686-mingw32/bin/../lib/gcc/nios2-elf/4.7.3/../../../../../H-i686-mingw32/nios2-elf/lib/mno-hw-mul\libc.a(lib_a-vfprintf.o)
 *fill*         0x0000d396        0x2 
 .rodata.str1.4
                0x0000d398       0x10 e:/softwares/quartus2/nios2eds/bin/gnu/h-i686-mingw32/bin/../lib/gcc/nios2-elf/4.7.3/../../../../../H-i686-mingw32/nios2-elf/lib/mno-hw-mul\libc.a(lib_a-dtoa.o)
                                 0x14 (size before relaxing)
 .rodata.str1.4
                0x0000d3a8       0x10 e:/softwares/quartus2/nios2eds/bin/gnu/h-i686-mingw32/bin/../lib/gcc/nios2-elf/4.7.3/../../../../../H-i686-mingw32/nios2-elf/lib/mno-hw-mul\libc.a(lib_a-locale.o)
                                 0x18 (size before relaxing)
 .rodata        0x0000d3b8       0x30 e:/softwares/quartus2/nios2eds/bin/gnu/h-i686-mingw32/bin/../lib/gcc/nios2-elf/4.7.3/../../../../../H-i686-mingw32/nios2-elf/lib/mno-hw-mul\libc.a(lib_a-locale.o)
 .rodata        0x0000d3e8      0x124 e:/softwares/quartus2/nios2eds/bin/gnu/h-i686-mingw32/bin/../lib/gcc/nios2-elf/4.7.3/../../../../../H-i686-mingw32/nios2-elf/lib/mno-hw-mul\libc.a(lib_a-mprec.o)
                0x0000d3e8                __mprec_tinytens
                0x0000d410                __mprec_bigtens
                0x0000d438                __mprec_tens
 .rodata        0x0000d50c       0x14 e:/softwares/quartus2/nios2eds/bin/gnu/h-i686-mingw32/bin/../lib/gcc/nios2-elf/4.7.3/mno-hw-mul\libgcc.a(_thenan_df.o)
                0x0000d50c                __thenan_df
 .rodata        0x0000d520      0x100 e:/softwares/quartus2/nios2eds/bin/gnu/h-i686-mingw32/bin/../lib/gcc/nios2-elf/4.7.3/mno-hw-mul\libgcc.a(_clz.o)
                0x0000d520                __clz_tab
 .rodata        0x0000d620        0xc ../lab_crc_bsp/\libhal_bsp.a(alt_dev.o)
 .rodata        0x0000d62c       0x10 ../lab_crc_bsp/\libhal_bsp.a(alt_main.o)
 .rodata        0x0000d63c       0x10 ../lab_crc_bsp/\libhal_bsp.a(alt_sys_init.o)
 *(.rodata1)
                0x0000d64c                . = ALIGN (0x4)
                0x0000d64c                PROVIDE (__ram_rodata_end, ABSOLUTE (.))
                0x0000ccf4                PROVIDE (__flash_rodata_start, LOADADDR (.rodata))

.rwdata         0x0000d64c     0x1a58 load address 0x0000f0a4
                0x0000d64c                PROVIDE (__ram_rwdata_start, ABSOLUTE (.))
                0x0000d64c                . = ALIGN (0x4)
 *(.got.plt)
 *(.got)
 *(.data1)
 *(.data .data.* .gnu.linkonce.d.*)
 .data          0x0000d64c        0x0 ../lab_crc_bsp//obj/HAL/src/crt0.o
 .data          0x0000d64c        0x0 obj/default/ci_crc.o
 .data          0x0000d64c        0x0 obj/default/crc.o
 .data          0x0000d64c        0x0 obj/default/crc_main.o
 .data          0x0000d64c        0x0 e:/softwares/quartus2/nios2eds/bin/gnu/h-i686-mingw32/bin/../lib/gcc/nios2-elf/4.7.3/mno-hw-mul\libgcc.a(lib2-divmod.o)
 .data          0x0000d64c        0x0 e:/softwares/quartus2/nios2eds/bin/gnu/h-i686-mingw32/bin/../lib/gcc/nios2-elf/4.7.3/mno-hw-mul\libgcc.a(lib2-mul.o)
 .data          0x0000d64c        0x0 e:/softwares/quartus2/nios2eds/bin/gnu/h-i686-mingw32/bin/../lib/gcc/nios2-elf/4.7.3/../../../../../H-i686-mingw32/nios2-elf/lib/mno-hw-mul\libc.a(lib_a-exit.o)
 .data          0x0000d64c      0x400 e:/softwares/quartus2/nios2eds/bin/gnu/h-i686-mingw32/bin/../lib/gcc/nios2-elf/4.7.3/../../../../../H-i686-mingw32/nios2-elf/lib/mno-hw-mul\libc.a(lib_a-impure.o)
 .data          0x0000da4c        0x0 e:/softwares/quartus2/nios2eds/bin/gnu/h-i686-mingw32/bin/../lib/gcc/nios2-elf/4.7.3/../../../../../H-i686-mingw32/nios2-elf/lib/mno-hw-mul\libc.a(lib_a-printf.o)
 .data          0x0000da4c        0x0 e:/softwares/quartus2/nios2eds/bin/gnu/h-i686-mingw32/bin/../lib/gcc/nios2-elf/4.7.3/../../../../../H-i686-mingw32/nios2-elf/lib/mno-hw-mul\libc.a(lib_a-puts.o)
 .data          0x0000da4c        0x0 e:/softwares/quartus2/nios2eds/bin/gnu/h-i686-mingw32/bin/../lib/gcc/nios2-elf/4.7.3/../../../../../H-i686-mingw32/nios2-elf/lib/mno-hw-mul\libc.a(lib_a-strlen.o)
 .data          0x0000da4c        0x0 e:/softwares/quartus2/nios2eds/bin/gnu/h-i686-mingw32/bin/../lib/gcc/nios2-elf/4.7.3/../../../../../H-i686-mingw32/nios2-elf/lib/mno-hw-mul\libc.a(lib_a-vfprintf.o)
 .data          0x0000da4c        0x0 e:/softwares/quartus2/nios2eds/bin/gnu/h-i686-mingw32/bin/../lib/gcc/nios2-elf/4.7.3/../../../../../H-i686-mingw32/nios2-elf/lib/mno-hw-mul\libc.a(lib_a-wsetup.o)
 .data          0x0000da4c        0x0 e:/softwares/quartus2/nios2eds/bin/gnu/h-i686-mingw32/bin/../lib/gcc/nios2-elf/4.7.3/../../../../../H-i686-mingw32/nios2-elf/lib/mno-hw-mul\libc.a(lib_a-__call_atexit.o)
 .data          0x0000da4c        0x0 e:/softwares/quartus2/nios2eds/bin/gnu/h-i686-mingw32/bin/../lib/gcc/nios2-elf/4.7.3/../../../../../H-i686-mingw32/nios2-elf/lib/mno-hw-mul\libc.a(lib_a-dtoa.o)
 .data          0x0000da4c        0x0 e:/softwares/quartus2/nios2eds/bin/gnu/h-i686-mingw32/bin/../lib/gcc/nios2-elf/4.7.3/../../../../../H-i686-mingw32/nios2-elf/lib/mno-hw-mul\libc.a(lib_a-fflush.o)
 .data          0x0000da4c        0x0 e:/softwares/quartus2/nios2eds/bin/gnu/h-i686-mingw32/bin/../lib/gcc/nios2-elf/4.7.3/../../../../../H-i686-mingw32/nios2-elf/lib/mno-hw-mul\libc.a(lib_a-findfp.o)
 .data          0x0000da4c        0x0 e:/softwares/quartus2/nios2eds/bin/gnu/h-i686-mingw32/bin/../lib/gcc/nios2-elf/4.7.3/../../../../../H-i686-mingw32/nios2-elf/lib/mno-hw-mul\libc.a(lib_a-freer.o)
 .data          0x0000da4c        0x0 e:/softwares/quartus2/nios2eds/bin/gnu/h-i686-mingw32/bin/../lib/gcc/nios2-elf/4.7.3/../../../../../H-i686-mingw32/nios2-elf/lib/mno-hw-mul\libc.a(lib_a-fvwrite.o)
 .data          0x0000da4c        0x0 e:/softwares/quartus2/nios2eds/bin/gnu/h-i686-mingw32/bin/../lib/gcc/nios2-elf/4.7.3/../../../../../H-i686-mingw32/nios2-elf/lib/mno-hw-mul\libc.a(lib_a-fwalk.o)
 .data          0x0000da4c        0xc e:/softwares/quartus2/nios2eds/bin/gnu/h-i686-mingw32/bin/../lib/gcc/nios2-elf/4.7.3/../../../../../H-i686-mingw32/nios2-elf/lib/mno-hw-mul\libc.a(lib_a-locale.o)
                0x0000da4c                __lc_ctype
 .data          0x0000da58        0x0 e:/softwares/quartus2/nios2eds/bin/gnu/h-i686-mingw32/bin/../lib/gcc/nios2-elf/4.7.3/../../../../../H-i686-mingw32/nios2-elf/lib/mno-hw-mul\libc.a(lib_a-makebuf.o)
 .data          0x0000da58      0x408 e:/softwares/quartus2/nios2eds/bin/gnu/h-i686-mingw32/bin/../lib/gcc/nios2-elf/4.7.3/../../../../../H-i686-mingw32/nios2-elf/lib/mno-hw-mul\libc.a(lib_a-mallocr.o)
                0x0000da58                __malloc_av_
 .data          0x0000de60        0x0 e:/softwares/quartus2/nios2eds/bin/gnu/h-i686-mingw32/bin/../lib/gcc/nios2-elf/4.7.3/../../../../../H-i686-mingw32/nios2-elf/lib/mno-hw-mul\libc.a(lib_a-memchr.o)
 .data          0x0000de60        0x0 e:/softwares/quartus2/nios2eds/bin/gnu/h-i686-mingw32/bin/../lib/gcc/nios2-elf/4.7.3/../../../../../H-i686-mingw32/nios2-elf/lib/mno-hw-mul\libc.a(lib_a-memcpy.o)
 .data          0x0000de60        0x0 e:/softwares/quartus2/nios2eds/bin/gnu/h-i686-mingw32/bin/../lib/gcc/nios2-elf/4.7.3/../../../../../H-i686-mingw32/nios2-elf/lib/mno-hw-mul\libc.a(lib_a-memmove.o)
 .data          0x0000de60        0x0 e:/softwares/quartus2/nios2eds/bin/gnu/h-i686-mingw32/bin/../lib/gcc/nios2-elf/4.7.3/../../../../../H-i686-mingw32/nios2-elf/lib/mno-hw-mul\libc.a(lib_a-memset.o)
 .data          0x0000de60        0x0 e:/softwares/quartus2/nios2eds/bin/gnu/h-i686-mingw32/bin/../lib/gcc/nios2-elf/4.7.3/../../../../../H-i686-mingw32/nios2-elf/lib/mno-hw-mul\libc.a(lib_a-mprec.o)
 .data          0x0000de60        0x0 e:/softwares/quartus2/nios2eds/bin/gnu/h-i686-mingw32/bin/../lib/gcc/nios2-elf/4.7.3/../../../../../H-i686-mingw32/nios2-elf/lib/mno-hw-mul\libc.a(lib_a-reallocr.o)
 .data          0x0000de60        0x0 e:/softwares/quartus2/nios2eds/bin/gnu/h-i686-mingw32/bin/../lib/gcc/nios2-elf/4.7.3/../../../../../H-i686-mingw32/nios2-elf/lib/mno-hw-mul\libc.a(lib_a-s_isinfd.o)
 .data          0x0000de60        0x0 e:/softwares/quartus2/nios2eds/bin/gnu/h-i686-mingw32/bin/../lib/gcc/nios2-elf/4.7.3/../../../../../H-i686-mingw32/nios2-elf/lib/mno-hw-mul\libc.a(lib_a-s_isnand.o)
 .data          0x0000de60        0x0 e:/softwares/quartus2/nios2eds/bin/gnu/h-i686-mingw32/bin/../lib/gcc/nios2-elf/4.7.3/../../../../../H-i686-mingw32/nios2-elf/lib/mno-hw-mul\libc.a(lib_a-sbrkr.o)
 .data          0x0000de60        0x0 e:/softwares/quartus2/nios2eds/bin/gnu/h-i686-mingw32/bin/../lib/gcc/nios2-elf/4.7.3/../../../../../H-i686-mingw32/nios2-elf/lib/mno-hw-mul\libc.a(lib_a-stdio.o)
 .data          0x0000de60        0x0 e:/softwares/quartus2/nios2eds/bin/gnu/h-i686-mingw32/bin/../lib/gcc/nios2-elf/4.7.3/../../../../../H-i686-mingw32/nios2-elf/lib/mno-hw-mul\libc.a(lib_a-strcmp.o)
 .data          0x0000de60        0x0 e:/softwares/quartus2/nios2eds/bin/gnu/h-i686-mingw32/bin/../lib/gcc/nios2-elf/4.7.3/../../../../../H-i686-mingw32/nios2-elf/lib/mno-hw-mul\libc.a(lib_a-writer.o)
 .data          0x0000de60        0x0 e:/softwares/quartus2/nios2eds/bin/gnu/h-i686-mingw32/bin/../lib/gcc/nios2-elf/4.7.3/../../../../../H-i686-mingw32/nios2-elf/lib/mno-hw-mul\libc.a(lib_a-callocr.o)
 .data          0x0000de60        0x0 e:/softwares/quartus2/nios2eds/bin/gnu/h-i686-mingw32/bin/../lib/gcc/nios2-elf/4.7.3/../../../../../H-i686-mingw32/nios2-elf/lib/mno-hw-mul\libc.a(lib_a-closer.o)
 .data          0x0000de60        0x0 e:/softwares/quartus2/nios2eds/bin/gnu/h-i686-mingw32/bin/../lib/gcc/nios2-elf/4.7.3/../../../../../H-i686-mingw32/nios2-elf/lib/mno-hw-mul\libc.a(lib_a-fclose.o)
 .data          0x0000de60        0x0 e:/softwares/quartus2/nios2eds/bin/gnu/h-i686-mingw32/bin/../lib/gcc/nios2-elf/4.7.3/../../../../../H-i686-mingw32/nios2-elf/lib/mno-hw-mul\libc.a(lib_a-fstatr.o)
 .data          0x0000de60        0x0 e:/softwares/quartus2/nios2eds/bin/gnu/h-i686-mingw32/bin/../lib/gcc/nios2-elf/4.7.3/../../../../../H-i686-mingw32/nios2-elf/lib/mno-hw-mul\libc.a(lib_a-int_errno.o)
 .data          0x0000de60        0x0 e:/softwares/quartus2/nios2eds/bin/gnu/h-i686-mingw32/bin/../lib/gcc/nios2-elf/4.7.3/../../../../../H-i686-mingw32/nios2-elf/lib/mno-hw-mul\libc.a(lib_a-isattyr.o)
 .data          0x0000de60        0x0 e:/softwares/quartus2/nios2eds/bin/gnu/h-i686-mingw32/bin/../lib/gcc/nios2-elf/4.7.3/../../../../../H-i686-mingw32/nios2-elf/lib/mno-hw-mul\libc.a(lib_a-lseekr.o)
 .data          0x0000de60        0x0 e:/softwares/quartus2/nios2eds/bin/gnu/h-i686-mingw32/bin/../lib/gcc/nios2-elf/4.7.3/../../../../../H-i686-mingw32/nios2-elf/lib/mno-hw-mul\libc.a(lib_a-readr.o)
 .data          0x0000de60        0x0 e:/softwares/quartus2/nios2eds/bin/gnu/h-i686-mingw32/bin/../lib/gcc/nios2-elf/4.7.3/mno-hw-mul\libgcc.a(_udivdi3.o)
 .data          0x0000de60        0x0 e:/softwares/quartus2/nios2eds/bin/gnu/h-i686-mingw32/bin/../lib/gcc/nios2-elf/4.7.3/mno-hw-mul\libgcc.a(_umoddi3.o)
 .data          0x0000de60        0x0 e:/softwares/quartus2/nios2eds/bin/gnu/h-i686-mingw32/bin/../lib/gcc/nios2-elf/4.7.3/mno-hw-mul\libgcc.a(_addsub_df.o)
 .data          0x0000de60        0x0 e:/softwares/quartus2/nios2eds/bin/gnu/h-i686-mingw32/bin/../lib/gcc/nios2-elf/4.7.3/mno-hw-mul\libgcc.a(_mul_df.o)
 .data          0x0000de60        0x0 e:/softwares/quartus2/nios2eds/bin/gnu/h-i686-mingw32/bin/../lib/gcc/nios2-elf/4.7.3/mno-hw-mul\libgcc.a(_div_df.o)
 .data          0x0000de60        0x0 e:/softwares/quartus2/nios2eds/bin/gnu/h-i686-mingw32/bin/../lib/gcc/nios2-elf/4.7.3/mno-hw-mul\libgcc.a(_eq_df.o)
 .data          0x0000de60        0x0 e:/softwares/quartus2/nios2eds/bin/gnu/h-i686-mingw32/bin/../lib/gcc/nios2-elf/4.7.3/mno-hw-mul\libgcc.a(_ne_df.o)
 .data          0x0000de60        0x0 e:/softwares/quartus2/nios2eds/bin/gnu/h-i686-mingw32/bin/../lib/gcc/nios2-elf/4.7.3/mno-hw-mul\libgcc.a(_gt_df.o)
 .data          0x0000de60        0x0 e:/softwares/quartus2/nios2eds/bin/gnu/h-i686-mingw32/bin/../lib/gcc/nios2-elf/4.7.3/mno-hw-mul\libgcc.a(_ge_df.o)
 .data          0x0000de60        0x0 e:/softwares/quartus2/nios2eds/bin/gnu/h-i686-mingw32/bin/../lib/gcc/nios2-elf/4.7.3/mno-hw-mul\libgcc.a(_lt_df.o)
 .data          0x0000de60        0x0 e:/softwares/quartus2/nios2eds/bin/gnu/h-i686-mingw32/bin/../lib/gcc/nios2-elf/4.7.3/mno-hw-mul\libgcc.a(_si_to_df.o)
 .data          0x0000de60        0x0 e:/softwares/quartus2/nios2eds/bin/gnu/h-i686-mingw32/bin/../lib/gcc/nios2-elf/4.7.3/mno-hw-mul\libgcc.a(_df_to_si.o)
 .data          0x0000de60        0x0 e:/softwares/quartus2/nios2eds/bin/gnu/h-i686-mingw32/bin/../lib/gcc/nios2-elf/4.7.3/mno-hw-mul\libgcc.a(_thenan_df.o)
 .data          0x0000de60        0x0 e:/softwares/quartus2/nios2eds/bin/gnu/h-i686-mingw32/bin/../lib/gcc/nios2-elf/4.7.3/mno-hw-mul\libgcc.a(_usi_to_df.o)
 .data          0x0000de60        0x0 e:/softwares/quartus2/nios2eds/bin/gnu/h-i686-mingw32/bin/../lib/gcc/nios2-elf/4.7.3/mno-hw-mul\libgcc.a(_muldi3.o)
 .data          0x0000de60        0x0 e:/softwares/quartus2/nios2eds/bin/gnu/h-i686-mingw32/bin/../lib/gcc/nios2-elf/4.7.3/mno-hw-mul\libgcc.a(_clz.o)
 .data          0x0000de60        0x0 e:/softwares/quartus2/nios2eds/bin/gnu/h-i686-mingw32/bin/../lib/gcc/nios2-elf/4.7.3/mno-hw-mul\libgcc.a(_clzsi2.o)
 .data          0x0000de60        0x0 e:/softwares/quartus2/nios2eds/bin/gnu/h-i686-mingw32/bin/../lib/gcc/nios2-elf/4.7.3/mno-hw-mul\libgcc.a(_pack_df.o)
 .data          0x0000de60        0x0 e:/softwares/quartus2/nios2eds/bin/gnu/h-i686-mingw32/bin/../lib/gcc/nios2-elf/4.7.3/mno-hw-mul\libgcc.a(_unpack_df.o)
 .data          0x0000de60        0x0 e:/softwares/quartus2/nios2eds/bin/gnu/h-i686-mingw32/bin/../lib/gcc/nios2-elf/4.7.3/mno-hw-mul\libgcc.a(_fpcmp_parts_df.o)
 .data          0x0000de60        0x0 e:/softwares/quartus2/nios2eds/bin/gnu/h-i686-mingw32/bin/../lib/gcc/nios2-elf/4.7.3/mno-hw-mul\libgcc.a(_lshrdi3.o)
 .data          0x0000de60        0x0 e:/softwares/quartus2/nios2eds/bin/gnu/h-i686-mingw32/bin/../lib/gcc/nios2-elf/4.7.3/mno-hw-mul\libgcc.a(_ashldi3.o)
 .data          0x0000de60        0x0 ../lab_crc_bsp/\libhal_bsp.a(alt_close.o)
 .data          0x0000de60      0x1a8 ../lab_crc_bsp/\libhal_bsp.a(alt_dev.o)
                0x0000de60                alt_dev_null
                0x0000de88                alt_fd_list
 .data          0x0000e008        0x0 ../lab_crc_bsp/\libhal_bsp.a(alt_errno.o)
 .data          0x0000e008        0x0 ../lab_crc_bsp/\libhal_bsp.a(alt_exit.o)
 .data          0x0000e008        0x0 ../lab_crc_bsp/\libhal_bsp.a(alt_fstat.o)
 .data          0x0000e008        0x0 ../lab_crc_bsp/\libhal_bsp.a(alt_isatty.o)
 .data          0x0000e008        0x0 ../lab_crc_bsp/\libhal_bsp.a(alt_load.o)
 .data          0x0000e008        0x0 ../lab_crc_bsp/\libhal_bsp.a(alt_lseek.o)
 .data          0x0000e008        0x0 ../lab_crc_bsp/\libhal_bsp.a(alt_main.o)
 .data          0x0000e008        0x0 ../lab_crc_bsp/\libhal_bsp.a(alt_malloc_lock.o)
 .data          0x0000e008        0x0 ../lab_crc_bsp/\libhal_bsp.a(alt_read.o)
 .data          0x0000e008        0x0 ../lab_crc_bsp/\libhal_bsp.a(alt_release_fd.o)
 .data          0x0000e008        0x0 ../lab_crc_bsp/\libhal_bsp.a(alt_sbrk.o)
 .data          0x0000e008        0x0 ../lab_crc_bsp/\libhal_bsp.a(alt_write.o)
 .data          0x0000e008     0x1060 ../lab_crc_bsp/\libhal_bsp.a(alt_sys_init.o)
 .data          0x0000f068        0x0 ../lab_crc_bsp/\libhal_bsp.a(altera_avalon_jtag_uart_fd.o)
 .data          0x0000f068        0x0 ../lab_crc_bsp/\libhal_bsp.a(altera_avalon_jtag_uart_init.o)
 .data          0x0000f068        0x0 ../lab_crc_bsp/\libhal_bsp.a(altera_avalon_jtag_uart_ioctl.o)
 .data          0x0000f068        0x0 ../lab_crc_bsp/\libhal_bsp.a(altera_avalon_jtag_uart_read.o)
 .data          0x0000f068        0x0 ../lab_crc_bsp/\libhal_bsp.a(altera_avalon_jtag_uart_write.o)
 .data          0x0000f068        0x0 ../lab_crc_bsp/\libhal_bsp.a(altera_avalon_timer_sc.o)
 .data          0x0000f068        0x0 ../lab_crc_bsp/\libhal_bsp.a(altera_avalon_timer_ts.o)
 .data          0x0000f068        0x0 ../lab_crc_bsp/\libhal_bsp.a(altera_avalon_timer_vars.o)
 .data          0x0000f068        0x0 ../lab_crc_bsp/\libhal_bsp.a(alt_alarm_start.o)
 .data          0x0000f068        0x0 ../lab_crc_bsp/\libhal_bsp.a(alt_dcache_flush_all.o)
 .data          0x0000f068        0x0 ../lab_crc_bsp/\libhal_bsp.a(alt_dev_llist_insert.o)
 .data          0x0000f068        0x0 ../lab_crc_bsp/\libhal_bsp.a(alt_do_ctors.o)
 .data          0x0000f068        0x0 ../lab_crc_bsp/\libhal_bsp.a(alt_do_dtors.o)
 .data          0x0000f068        0x0 ../lab_crc_bsp/\libhal_bsp.a(alt_icache_flush_all.o)
 .data          0x0000f068        0x0 ../lab_crc_bsp/\libhal_bsp.a(alt_iic.o)
 .data          0x0000f068        0x0 ../lab_crc_bsp/\libhal_bsp.a(alt_iic_isr_register.o)
 .data          0x0000f068        0x0 ../lab_crc_bsp/\libhal_bsp.a(alt_io_redirect.o)
 .data          0x0000f068        0x0 ../lab_crc_bsp/\libhal_bsp.a(alt_irq_entry.o)
 .data          0x0000f068        0x0 ../lab_crc_bsp/\libhal_bsp.a(alt_irq_handler.o)
 .data          0x0000f068        0x0 ../lab_crc_bsp/\libhal_bsp.a(alt_irq_vars.o)
 .data          0x0000f068        0x0 ../lab_crc_bsp/\libhal_bsp.a(alt_open.o)
 .data          0x0000f068        0x0 ../lab_crc_bsp/\libhal_bsp.a(alt_tick.o)
 .data          0x0000f068        0x0 ../lab_crc_bsp/\libhal_bsp.a(altera_nios2_qsys_irq.o)
 .data          0x0000f068        0x0 ../lab_crc_bsp/\libhal_bsp.a(alt_exception_entry.o)
 .data          0x0000f068        0x0 ../lab_crc_bsp/\libhal_bsp.a(alt_find_dev.o)
 .data          0x0000f068        0x0 ../lab_crc_bsp/\libhal_bsp.a(alt_find_file.o)
 .data          0x0000f068        0x0 ../lab_crc_bsp/\libhal_bsp.a(alt_get_fd.o)
 .data          0x0000f068        0x0 e:/softwares/quartus2/nios2eds/bin/gnu/h-i686-mingw32/bin/../lib/gcc/nios2-elf/4.7.3/../../../../../H-i686-mingw32/nios2-elf/lib/mno-hw-mul\libc.a(lib_a-atexit.o)
 .data          0x0000f068        0x0 e:/softwares/quartus2/nios2eds/bin/gnu/h-i686-mingw32/bin/../lib/gcc/nios2-elf/4.7.3/../../../../../H-i686-mingw32/nios2-elf/lib/mno-hw-mul\libc.a(lib_a-memcmp.o)
 .data          0x0000f068        0x0 e:/softwares/quartus2/nios2eds/bin/gnu/h-i686-mingw32/bin/../lib/gcc/nios2-elf/4.7.3/../../../../../H-i686-mingw32/nios2-elf/lib/mno-hw-mul\libc.a(lib_a-__atexit.o)
                0x00017068                _gp = ABSOLUTE ((. + 0x8000))
                0x00017068                PROVIDE (gp, _gp)
 *(.rwdata .rwdata.*)
 *(.sdata .sdata.* .gnu.linkonce.s.*)
 .sdata         0x0000f068        0x8 e:/softwares/quartus2/nios2eds/bin/gnu/h-i686-mingw32/bin/../lib/gcc/nios2-elf/4.7.3/../../../../../H-i686-mingw32/nios2-elf/lib/mno-hw-mul\libc.a(lib_a-impure.o)
                0x0000f068                _global_impure_ptr
                0x0000f06c                _impure_ptr
 .sdata         0x0000f070        0x4 e:/softwares/quartus2/nios2eds/bin/gnu/h-i686-mingw32/bin/../lib/gcc/nios2-elf/4.7.3/../../../../../H-i686-mingw32/nios2-elf/lib/mno-hw-mul\libc.a(lib_a-locale.o)
                0x0000f070                __mb_cur_max
 .sdata         0x0000f074        0x8 e:/softwares/quartus2/nios2eds/bin/gnu/h-i686-mingw32/bin/../lib/gcc/nios2-elf/4.7.3/../../../../../H-i686-mingw32/nios2-elf/lib/mno-hw-mul\libc.a(lib_a-mallocr.o)
                0x0000f074                __malloc_sbrk_base
                0x0000f078                __malloc_trim_threshold
 .sdata         0x0000f07c       0x14 ../lab_crc_bsp/\libhal_bsp.a(alt_dev.o)
                0x0000f07c                alt_fs_list
                0x0000f084                alt_dev_list
                0x0000f08c                alt_max_fd
 .sdata         0x0000f090        0x4 ../lab_crc_bsp/\libhal_bsp.a(alt_errno.o)
                0x0000f090                alt_errno
 .sdata         0x0000f094        0x4 ../lab_crc_bsp/\libhal_bsp.a(alt_sbrk.o)
 .sdata         0x0000f098        0x4 ../lab_crc_bsp/\libhal_bsp.a(alt_irq_vars.o)
                0x0000f098                alt_priority_mask
 .sdata         0x0000f09c        0x8 ../lab_crc_bsp/\libhal_bsp.a(alt_tick.o)
                0x0000f09c                alt_alarm_list
 *(.sdata2 .sdata2.* .gnu.linkonce.s2.*)
                0x0000f0a4                . = ALIGN (0x4)
                0x0000f0a4                _edata = ABSOLUTE (.)
                0x0000f0a4                PROVIDE (edata, ABSOLUTE (.))
                0x0000f0a4                PROVIDE (__ram_rwdata_end, ABSOLUTE (.))
                0x0000f0a4                PROVIDE (__flash_rwdata_start, LOADADDR (.rwdata))

.bss            0x00010afc     0x26f4
                0x00010afc                __bss_start = ABSOLUTE (.)
                0x00010afc                PROVIDE (__sbss_start, ABSOLUTE (.))
                0x00010afc                PROVIDE (___sbss_start, ABSOLUTE (.))
 *(.dynsbss)
 *(.sbss .sbss.* .gnu.linkonce.sb.*)
 .sbss          0x00010afc        0xc e:/softwares/quartus2/nios2eds/bin/gnu/h-i686-mingw32/bin/../lib/gcc/nios2-elf/4.7.3/../../../../../H-i686-mingw32/nios2-elf/lib/mno-hw-mul\libc.a(lib_a-locale.o)
                0x00010afc                _PathLocale
                0x00010b00                __mlocale_changed
                0x00010b04                __nlocale_changed
 .sbss          0x00010b08        0xc e:/softwares/quartus2/nios2eds/bin/gnu/h-i686-mingw32/bin/../lib/gcc/nios2-elf/4.7.3/../../../../../H-i686-mingw32/nios2-elf/lib/mno-hw-mul\libc.a(lib_a-mallocr.o)
                0x00010b08                __malloc_max_total_mem
                0x00010b0c                __malloc_max_sbrked_mem
                0x00010b10                __malloc_top_pad
 .sbss          0x00010b14        0x4 e:/softwares/quartus2/nios2eds/bin/gnu/h-i686-mingw32/bin/../lib/gcc/nios2-elf/4.7.3/../../../../../H-i686-mingw32/nios2-elf/lib/mno-hw-mul\libc.a(lib_a-int_errno.o)
                0x00010b14                errno
 .sbss          0x00010b18        0xc ../lab_crc_bsp/\libhal_bsp.a(alt_main.o)
                0x00010b18                alt_argc
                0x00010b1c                alt_argv
                0x00010b20                alt_envp
 .sbss          0x00010b24        0x8 ../lab_crc_bsp/\libhal_bsp.a(altera_avalon_timer_vars.o)
                0x00010b24                altera_avalon_timer_ts_base
                0x00010b28                altera_avalon_timer_ts_freq
 .sbss          0x00010b2c        0x4 ../lab_crc_bsp/\libhal_bsp.a(alt_irq_vars.o)
                0x00010b2c                alt_irq_active
 .sbss          0x00010b30        0x8 ../lab_crc_bsp/\libhal_bsp.a(alt_tick.o)
                0x00010b30                _alt_tick_rate
                0x00010b34                _alt_nticks
 *(.sbss2 .sbss2.* .gnu.linkonce.sb2.*)
 *(.scommon)
                0x00010b38                PROVIDE (__sbss_end, ABSOLUTE (.))
                0x00010b38                PROVIDE (___sbss_end, ABSOLUTE (.))
 *(.dynbss)
 *(.bss .bss.* .gnu.linkonce.b.*)
 .bss           0x00010b38        0x0 ../lab_crc_bsp//obj/HAL/src/crt0.o
 .bss           0x00010b38        0x0 obj/default/ci_crc.o
 .bss           0x00010b38        0x0 obj/default/crc.o
 .bss           0x00010b38        0x0 obj/default/crc_main.o
 .bss           0x00010b38        0x0 e:/softwares/quartus2/nios2eds/bin/gnu/h-i686-mingw32/bin/../lib/gcc/nios2-elf/4.7.3/mno-hw-mul\libgcc.a(lib2-divmod.o)
 .bss           0x00010b38        0x0 e:/softwares/quartus2/nios2eds/bin/gnu/h-i686-mingw32/bin/../lib/gcc/nios2-elf/4.7.3/mno-hw-mul\libgcc.a(lib2-mul.o)
 .bss           0x00010b38        0x0 e:/softwares/quartus2/nios2eds/bin/gnu/h-i686-mingw32/bin/../lib/gcc/nios2-elf/4.7.3/../../../../../H-i686-mingw32/nios2-elf/lib/mno-hw-mul\libc.a(lib_a-exit.o)
 .bss           0x00010b38        0x0 e:/softwares/quartus2/nios2eds/bin/gnu/h-i686-mingw32/bin/../lib/gcc/nios2-elf/4.7.3/../../../../../H-i686-mingw32/nios2-elf/lib/mno-hw-mul\libc.a(lib_a-impure.o)
 .bss           0x00010b38        0x0 e:/softwares/quartus2/nios2eds/bin/gnu/h-i686-mingw32/bin/../lib/gcc/nios2-elf/4.7.3/../../../../../H-i686-mingw32/nios2-elf/lib/mno-hw-mul\libc.a(lib_a-printf.o)
 .bss           0x00010b38        0x0 e:/softwares/quartus2/nios2eds/bin/gnu/h-i686-mingw32/bin/../lib/gcc/nios2-elf/4.7.3/../../../../../H-i686-mingw32/nios2-elf/lib/mno-hw-mul\libc.a(lib_a-puts.o)
 .bss           0x00010b38        0x0 e:/softwares/quartus2/nios2eds/bin/gnu/h-i686-mingw32/bin/../lib/gcc/nios2-elf/4.7.3/../../../../../H-i686-mingw32/nios2-elf/lib/mno-hw-mul\libc.a(lib_a-strlen.o)
 .bss           0x00010b38        0x0 e:/softwares/quartus2/nios2eds/bin/gnu/h-i686-mingw32/bin/../lib/gcc/nios2-elf/4.7.3/../../../../../H-i686-mingw32/nios2-elf/lib/mno-hw-mul\libc.a(lib_a-vfprintf.o)
 .bss           0x00010b38        0x0 e:/softwares/quartus2/nios2eds/bin/gnu/h-i686-mingw32/bin/../lib/gcc/nios2-elf/4.7.3/../../../../../H-i686-mingw32/nios2-elf/lib/mno-hw-mul\libc.a(lib_a-wsetup.o)
 .bss           0x00010b38        0x0 e:/softwares/quartus2/nios2eds/bin/gnu/h-i686-mingw32/bin/../lib/gcc/nios2-elf/4.7.3/../../../../../H-i686-mingw32/nios2-elf/lib/mno-hw-mul\libc.a(lib_a-__call_atexit.o)
 .bss           0x00010b38        0x0 e:/softwares/quartus2/nios2eds/bin/gnu/h-i686-mingw32/bin/../lib/gcc/nios2-elf/4.7.3/../../../../../H-i686-mingw32/nios2-elf/lib/mno-hw-mul\libc.a(lib_a-dtoa.o)
 .bss           0x00010b38        0x0 e:/softwares/quartus2/nios2eds/bin/gnu/h-i686-mingw32/bin/../lib/gcc/nios2-elf/4.7.3/../../../../../H-i686-mingw32/nios2-elf/lib/mno-hw-mul\libc.a(lib_a-fflush.o)
 .bss           0x00010b38        0x0 e:/softwares/quartus2/nios2eds/bin/gnu/h-i686-mingw32/bin/../lib/gcc/nios2-elf/4.7.3/../../../../../H-i686-mingw32/nios2-elf/lib/mno-hw-mul\libc.a(lib_a-findfp.o)
 .bss           0x00010b38        0x0 e:/softwares/quartus2/nios2eds/bin/gnu/h-i686-mingw32/bin/../lib/gcc/nios2-elf/4.7.3/../../../../../H-i686-mingw32/nios2-elf/lib/mno-hw-mul\libc.a(lib_a-freer.o)
 .bss           0x00010b38        0x0 e:/softwares/quartus2/nios2eds/bin/gnu/h-i686-mingw32/bin/../lib/gcc/nios2-elf/4.7.3/../../../../../H-i686-mingw32/nios2-elf/lib/mno-hw-mul\libc.a(lib_a-fvwrite.o)
 .bss           0x00010b38        0x0 e:/softwares/quartus2/nios2eds/bin/gnu/h-i686-mingw32/bin/../lib/gcc/nios2-elf/4.7.3/../../../../../H-i686-mingw32/nios2-elf/lib/mno-hw-mul\libc.a(lib_a-fwalk.o)
 .bss           0x00010b38        0x0 e:/softwares/quartus2/nios2eds/bin/gnu/h-i686-mingw32/bin/../lib/gcc/nios2-elf/4.7.3/../../../../../H-i686-mingw32/nios2-elf/lib/mno-hw-mul\libc.a(lib_a-locale.o)
 .bss           0x00010b38        0x0 e:/softwares/quartus2/nios2eds/bin/gnu/h-i686-mingw32/bin/../lib/gcc/nios2-elf/4.7.3/../../../../../H-i686-mingw32/nios2-elf/lib/mno-hw-mul\libc.a(lib_a-makebuf.o)
 .bss           0x00010b38       0x28 e:/softwares/quartus2/nios2eds/bin/gnu/h-i686-mingw32/bin/../lib/gcc/nios2-elf/4.7.3/../../../../../H-i686-mingw32/nios2-elf/lib/mno-hw-mul\libc.a(lib_a-mallocr.o)
                0x00010b38                __malloc_current_mallinfo
 .bss           0x00010b60        0x0 e:/softwares/quartus2/nios2eds/bin/gnu/h-i686-mingw32/bin/../lib/gcc/nios2-elf/4.7.3/../../../../../H-i686-mingw32/nios2-elf/lib/mno-hw-mul\libc.a(lib_a-memchr.o)
 .bss           0x00010b60        0x0 e:/softwares/quartus2/nios2eds/bin/gnu/h-i686-mingw32/bin/../lib/gcc/nios2-elf/4.7.3/../../../../../H-i686-mingw32/nios2-elf/lib/mno-hw-mul\libc.a(lib_a-memcpy.o)
 .bss           0x00010b60        0x0 e:/softwares/quartus2/nios2eds/bin/gnu/h-i686-mingw32/bin/../lib/gcc/nios2-elf/4.7.3/../../../../../H-i686-mingw32/nios2-elf/lib/mno-hw-mul\libc.a(lib_a-memmove.o)
 .bss           0x00010b60        0x0 e:/softwares/quartus2/nios2eds/bin/gnu/h-i686-mingw32/bin/../lib/gcc/nios2-elf/4.7.3/../../../../../H-i686-mingw32/nios2-elf/lib/mno-hw-mul\libc.a(lib_a-memset.o)
 .bss           0x00010b60        0x0 e:/softwares/quartus2/nios2eds/bin/gnu/h-i686-mingw32/bin/../lib/gcc/nios2-elf/4.7.3/../../../../../H-i686-mingw32/nios2-elf/lib/mno-hw-mul\libc.a(lib_a-mprec.o)
 .bss           0x00010b60        0x0 e:/softwares/quartus2/nios2eds/bin/gnu/h-i686-mingw32/bin/../lib/gcc/nios2-elf/4.7.3/../../../../../H-i686-mingw32/nios2-elf/lib/mno-hw-mul\libc.a(lib_a-reallocr.o)
 .bss           0x00010b60        0x0 e:/softwares/quartus2/nios2eds/bin/gnu/h-i686-mingw32/bin/../lib/gcc/nios2-elf/4.7.3/../../../../../H-i686-mingw32/nios2-elf/lib/mno-hw-mul\libc.a(lib_a-s_isinfd.o)
 .bss           0x00010b60        0x0 e:/softwares/quartus2/nios2eds/bin/gnu/h-i686-mingw32/bin/../lib/gcc/nios2-elf/4.7.3/../../../../../H-i686-mingw32/nios2-elf/lib/mno-hw-mul\libc.a(lib_a-s_isnand.o)
 .bss           0x00010b60        0x0 e:/softwares/quartus2/nios2eds/bin/gnu/h-i686-mingw32/bin/../lib/gcc/nios2-elf/4.7.3/../../../../../H-i686-mingw32/nios2-elf/lib/mno-hw-mul\libc.a(lib_a-sbrkr.o)
 .bss           0x00010b60        0x0 e:/softwares/quartus2/nios2eds/bin/gnu/h-i686-mingw32/bin/../lib/gcc/nios2-elf/4.7.3/../../../../../H-i686-mingw32/nios2-elf/lib/mno-hw-mul\libc.a(lib_a-stdio.o)
 .bss           0x00010b60        0x0 e:/softwares/quartus2/nios2eds/bin/gnu/h-i686-mingw32/bin/../lib/gcc/nios2-elf/4.7.3/../../../../../H-i686-mingw32/nios2-elf/lib/mno-hw-mul\libc.a(lib_a-strcmp.o)
 .bss           0x00010b60        0x0 e:/softwares/quartus2/nios2eds/bin/gnu/h-i686-mingw32/bin/../lib/gcc/nios2-elf/4.7.3/../../../../../H-i686-mingw32/nios2-elf/lib/mno-hw-mul\libc.a(lib_a-writer.o)
 .bss           0x00010b60        0x0 e:/softwares/quartus2/nios2eds/bin/gnu/h-i686-mingw32/bin/../lib/gcc/nios2-elf/4.7.3/../../../../../H-i686-mingw32/nios2-elf/lib/mno-hw-mul\libc.a(lib_a-callocr.o)
 .bss           0x00010b60        0x0 e:/softwares/quartus2/nios2eds/bin/gnu/h-i686-mingw32/bin/../lib/gcc/nios2-elf/4.7.3/../../../../../H-i686-mingw32/nios2-elf/lib/mno-hw-mul\libc.a(lib_a-closer.o)
 .bss           0x00010b60        0x0 e:/softwares/quartus2/nios2eds/bin/gnu/h-i686-mingw32/bin/../lib/gcc/nios2-elf/4.7.3/../../../../../H-i686-mingw32/nios2-elf/lib/mno-hw-mul\libc.a(lib_a-fclose.o)
 .bss           0x00010b60        0x0 e:/softwares/quartus2/nios2eds/bin/gnu/h-i686-mingw32/bin/../lib/gcc/nios2-elf/4.7.3/../../../../../H-i686-mingw32/nios2-elf/lib/mno-hw-mul\libc.a(lib_a-fstatr.o)
 .bss           0x00010b60        0x0 e:/softwares/quartus2/nios2eds/bin/gnu/h-i686-mingw32/bin/../lib/gcc/nios2-elf/4.7.3/../../../../../H-i686-mingw32/nios2-elf/lib/mno-hw-mul\libc.a(lib_a-int_errno.o)
 .bss           0x00010b60        0x0 e:/softwares/quartus2/nios2eds/bin/gnu/h-i686-mingw32/bin/../lib/gcc/nios2-elf/4.7.3/../../../../../H-i686-mingw32/nios2-elf/lib/mno-hw-mul\libc.a(lib_a-isattyr.o)
 .bss           0x00010b60        0x0 e:/softwares/quartus2/nios2eds/bin/gnu/h-i686-mingw32/bin/../lib/gcc/nios2-elf/4.7.3/../../../../../H-i686-mingw32/nios2-elf/lib/mno-hw-mul\libc.a(lib_a-lseekr.o)
 .bss           0x00010b60        0x0 e:/softwares/quartus2/nios2eds/bin/gnu/h-i686-mingw32/bin/../lib/gcc/nios2-elf/4.7.3/../../../../../H-i686-mingw32/nios2-elf/lib/mno-hw-mul\libc.a(lib_a-readr.o)
 .bss           0x00010b60        0x0 e:/softwares/quartus2/nios2eds/bin/gnu/h-i686-mingw32/bin/../lib/gcc/nios2-elf/4.7.3/mno-hw-mul\libgcc.a(_udivdi3.o)
 .bss           0x00010b60        0x0 e:/softwares/quartus2/nios2eds/bin/gnu/h-i686-mingw32/bin/../lib/gcc/nios2-elf/4.7.3/mno-hw-mul\libgcc.a(_umoddi3.o)
 .bss           0x00010b60        0x0 e:/softwares/quartus2/nios2eds/bin/gnu/h-i686-mingw32/bin/../lib/gcc/nios2-elf/4.7.3/mno-hw-mul\libgcc.a(_addsub_df.o)
 .bss           0x00010b60        0x0 e:/softwares/quartus2/nios2eds/bin/gnu/h-i686-mingw32/bin/../lib/gcc/nios2-elf/4.7.3/mno-hw-mul\libgcc.a(_mul_df.o)
 .bss           0x00010b60        0x0 e:/softwares/quartus2/nios2eds/bin/gnu/h-i686-mingw32/bin/../lib/gcc/nios2-elf/4.7.3/mno-hw-mul\libgcc.a(_div_df.o)
 .bss           0x00010b60        0x0 e:/softwares/quartus2/nios2eds/bin/gnu/h-i686-mingw32/bin/../lib/gcc/nios2-elf/4.7.3/mno-hw-mul\libgcc.a(_eq_df.o)
 .bss           0x00010b60        0x0 e:/softwares/quartus2/nios2eds/bin/gnu/h-i686-mingw32/bin/../lib/gcc/nios2-elf/4.7.3/mno-hw-mul\libgcc.a(_ne_df.o)
 .bss           0x00010b60        0x0 e:/softwares/quartus2/nios2eds/bin/gnu/h-i686-mingw32/bin/../lib/gcc/nios2-elf/4.7.3/mno-hw-mul\libgcc.a(_gt_df.o)
 .bss           0x00010b60        0x0 e:/softwares/quartus2/nios2eds/bin/gnu/h-i686-mingw32/bin/../lib/gcc/nios2-elf/4.7.3/mno-hw-mul\libgcc.a(_ge_df.o)
 .bss           0x00010b60        0x0 e:/softwares/quartus2/nios2eds/bin/gnu/h-i686-mingw32/bin/../lib/gcc/nios2-elf/4.7.3/mno-hw-mul\libgcc.a(_lt_df.o)
 .bss           0x00010b60        0x0 e:/softwares/quartus2/nios2eds/bin/gnu/h-i686-mingw32/bin/../lib/gcc/nios2-elf/4.7.3/mno-hw-mul\libgcc.a(_si_to_df.o)
 .bss           0x00010b60        0x0 e:/softwares/quartus2/nios2eds/bin/gnu/h-i686-mingw32/bin/../lib/gcc/nios2-elf/4.7.3/mno-hw-mul\libgcc.a(_df_to_si.o)
 .bss           0x00010b60        0x0 e:/softwares/quartus2/nios2eds/bin/gnu/h-i686-mingw32/bin/../lib/gcc/nios2-elf/4.7.3/mno-hw-mul\libgcc.a(_thenan_df.o)
 .bss           0x00010b60        0x0 e:/softwares/quartus2/nios2eds/bin/gnu/h-i686-mingw32/bin/../lib/gcc/nios2-elf/4.7.3/mno-hw-mul\libgcc.a(_usi_to_df.o)
 .bss           0x00010b60        0x0 e:/softwares/quartus2/nios2eds/bin/gnu/h-i686-mingw32/bin/../lib/gcc/nios2-elf/4.7.3/mno-hw-mul\libgcc.a(_muldi3.o)
 .bss           0x00010b60        0x0 e:/softwares/quartus2/nios2eds/bin/gnu/h-i686-mingw32/bin/../lib/gcc/nios2-elf/4.7.3/mno-hw-mul\libgcc.a(_clz.o)
 .bss           0x00010b60        0x0 e:/softwares/quartus2/nios2eds/bin/gnu/h-i686-mingw32/bin/../lib/gcc/nios2-elf/4.7.3/mno-hw-mul\libgcc.a(_clzsi2.o)
 .bss           0x00010b60        0x0 e:/softwares/quartus2/nios2eds/bin/gnu/h-i686-mingw32/bin/../lib/gcc/nios2-elf/4.7.3/mno-hw-mul\libgcc.a(_pack_df.o)
 .bss           0x00010b60        0x0 e:/softwares/quartus2/nios2eds/bin/gnu/h-i686-mingw32/bin/../lib/gcc/nios2-elf/4.7.3/mno-hw-mul\libgcc.a(_unpack_df.o)
 .bss           0x00010b60        0x0 e:/softwares/quartus2/nios2eds/bin/gnu/h-i686-mingw32/bin/../lib/gcc/nios2-elf/4.7.3/mno-hw-mul\libgcc.a(_fpcmp_parts_df.o)
 .bss           0x00010b60        0x0 e:/softwares/quartus2/nios2eds/bin/gnu/h-i686-mingw32/bin/../lib/gcc/nios2-elf/4.7.3/mno-hw-mul\libgcc.a(_lshrdi3.o)
 .bss           0x00010b60        0x0 e:/softwares/quartus2/nios2eds/bin/gnu/h-i686-mingw32/bin/../lib/gcc/nios2-elf/4.7.3/mno-hw-mul\libgcc.a(_ashldi3.o)
 .bss           0x00010b60        0x0 ../lab_crc_bsp/\libhal_bsp.a(alt_close.o)
 .bss           0x00010b60        0x0 ../lab_crc_bsp/\libhal_bsp.a(alt_dev.o)
 .bss           0x00010b60        0x0 ../lab_crc_bsp/\libhal_bsp.a(alt_errno.o)
 .bss           0x00010b60        0x0 ../lab_crc_bsp/\libhal_bsp.a(alt_exit.o)
 .bss           0x00010b60        0x0 ../lab_crc_bsp/\libhal_bsp.a(alt_fstat.o)
 .bss           0x00010b60        0x0 ../lab_crc_bsp/\libhal_bsp.a(alt_isatty.o)
 .bss           0x00010b60        0x0 ../lab_crc_bsp/\libhal_bsp.a(alt_load.o)
 .bss           0x00010b60        0x0 ../lab_crc_bsp/\libhal_bsp.a(alt_lseek.o)
 .bss           0x00010b60        0x0 ../lab_crc_bsp/\libhal_bsp.a(alt_main.o)
 .bss           0x00010b60        0x0 ../lab_crc_bsp/\libhal_bsp.a(alt_malloc_lock.o)
 .bss           0x00010b60        0x0 ../lab_crc_bsp/\libhal_bsp.a(alt_read.o)
 .bss           0x00010b60        0x0 ../lab_crc_bsp/\libhal_bsp.a(alt_release_fd.o)
 .bss           0x00010b60        0x0 ../lab_crc_bsp/\libhal_bsp.a(alt_sbrk.o)
 .bss           0x00010b60        0x0 ../lab_crc_bsp/\libhal_bsp.a(alt_write.o)
 .bss           0x00010b60        0x0 ../lab_crc_bsp/\libhal_bsp.a(alt_sys_init.o)
 .bss           0x00010b60        0x0 ../lab_crc_bsp/\libhal_bsp.a(altera_avalon_jtag_uart_fd.o)
 .bss           0x00010b60        0x0 ../lab_crc_bsp/\libhal_bsp.a(altera_avalon_jtag_uart_init.o)
 .bss           0x00010b60        0x0 ../lab_crc_bsp/\libhal_bsp.a(altera_avalon_jtag_uart_ioctl.o)
 .bss           0x00010b60        0x0 ../lab_crc_bsp/\libhal_bsp.a(altera_avalon_jtag_uart_read.o)
 .bss           0x00010b60        0x0 ../lab_crc_bsp/\libhal_bsp.a(altera_avalon_jtag_uart_write.o)
 .bss           0x00010b60        0x0 ../lab_crc_bsp/\libhal_bsp.a(altera_avalon_timer_sc.o)
 .bss           0x00010b60        0x0 ../lab_crc_bsp/\libhal_bsp.a(altera_avalon_timer_ts.o)
 .bss           0x00010b60        0x0 ../lab_crc_bsp/\libhal_bsp.a(altera_avalon_timer_vars.o)
 .bss           0x00010b60        0x0 ../lab_crc_bsp/\libhal_bsp.a(alt_alarm_start.o)
 .bss           0x00010b60        0x0 ../lab_crc_bsp/\libhal_bsp.a(alt_dcache_flush_all.o)
 .bss           0x00010b60        0x0 ../lab_crc_bsp/\libhal_bsp.a(alt_dev_llist_insert.o)
 .bss           0x00010b60        0x0 ../lab_crc_bsp/\libhal_bsp.a(alt_do_ctors.o)
 .bss           0x00010b60        0x0 ../lab_crc_bsp/\libhal_bsp.a(alt_do_dtors.o)
 .bss           0x00010b60        0x0 ../lab_crc_bsp/\libhal_bsp.a(alt_icache_flush_all.o)
 .bss           0x00010b60        0x0 ../lab_crc_bsp/\libhal_bsp.a(alt_iic.o)
 .bss           0x00010b60        0x0 ../lab_crc_bsp/\libhal_bsp.a(alt_iic_isr_register.o)
 .bss           0x00010b60        0x0 ../lab_crc_bsp/\libhal_bsp.a(alt_io_redirect.o)
 .bss           0x00010b60        0x0 ../lab_crc_bsp/\libhal_bsp.a(alt_irq_entry.o)
 .bss           0x00010b60        0x0 ../lab_crc_bsp/\libhal_bsp.a(alt_irq_handler.o)
 .bss           0x00010b60        0x0 ../lab_crc_bsp/\libhal_bsp.a(alt_irq_vars.o)
 .bss           0x00010b60        0x0 ../lab_crc_bsp/\libhal_bsp.a(alt_open.o)
 .bss           0x00010b60        0x0 ../lab_crc_bsp/\libhal_bsp.a(alt_tick.o)
 .bss           0x00010b60        0x0 ../lab_crc_bsp/\libhal_bsp.a(altera_nios2_qsys_irq.o)
 .bss           0x00010b60        0x0 ../lab_crc_bsp/\libhal_bsp.a(alt_exception_entry.o)
 .bss           0x00010b60        0x0 ../lab_crc_bsp/\libhal_bsp.a(alt_find_dev.o)
 .bss           0x00010b60        0x0 ../lab_crc_bsp/\libhal_bsp.a(alt_find_file.o)
 .bss           0x00010b60        0x0 ../lab_crc_bsp/\libhal_bsp.a(alt_get_fd.o)
 .bss           0x00010b60        0x0 e:/softwares/quartus2/nios2eds/bin/gnu/h-i686-mingw32/bin/../lib/gcc/nios2-elf/4.7.3/../../../../../H-i686-mingw32/nios2-elf/lib/mno-hw-mul\libc.a(lib_a-atexit.o)
 .bss           0x00010b60        0x0 e:/softwares/quartus2/nios2eds/bin/gnu/h-i686-mingw32/bin/../lib/gcc/nios2-elf/4.7.3/../../../../../H-i686-mingw32/nios2-elf/lib/mno-hw-mul\libc.a(lib_a-memcmp.o)
 .bss           0x00010b60        0x0 e:/softwares/quartus2/nios2eds/bin/gnu/h-i686-mingw32/bin/../lib/gcc/nios2-elf/4.7.3/../../../../../H-i686-mingw32/nios2-elf/lib/mno-hw-mul\libc.a(lib_a-__atexit.o)
 *(COMMON)
 COMMON         0x00010b60      0x400 obj/default/crc.o
                0x00010b60                crcTable
 COMMON         0x00010f60     0x2000 obj/default/crc_main.o
                0x00010f60                data_buffer_region
 COMMON         0x00012f60      0x100 ../lab_crc_bsp/\libhal_bsp.a(alt_irq_handler.o)
                0x00012f60                alt_irq
 COMMON         0x00013060      0x190 e:/softwares/quartus2/nios2eds/bin/gnu/h-i686-mingw32/bin/../lib/gcc/nios2-elf/4.7.3/../../../../../H-i686-mingw32/nios2-elf/lib/mno-hw-mul\libc.a(lib_a-atexit.o)
                0x00013060                _atexit0
                0x000131f0                . = ALIGN (0x4)
                0x000131f0                __bss_end = ABSOLUTE (.)

.sdram_controller
                0x000131f0        0x0
                0x000131f0                PROVIDE (_alt_partition_sdram_controller_start, ABSOLUTE (.))
 *(.sdram_controller .sdram_controller. sdram_controller.*)
                0x000131f0                . = ALIGN (0x4)
                0x000131f0                PROVIDE (_alt_partition_sdram_controller_end, ABSOLUTE (.))
                0x000131f0                _end = ABSOLUTE (.)
                0x000131f0                end = ABSOLUTE (.)
                0x000131f0                __alt_stack_base = ABSOLUTE (.)
                0x000131f0                PROVIDE (_alt_partition_sdram_controller_load_addr, LOADADDR (.sdram_controller))

.stab
 *(.stab)

.stabstr
 *(.stabstr)

.stab.excl
 *(.stab.excl)

.stab.exclstr
 *(.stab.exclstr)

.stab.index
 *(.stab.index)

.stab.indexstr
 *(.stab.indexstr)

.comment        0x00000000       0x23
 *(.comment)
 .comment       0x00000000       0x23 obj/default/ci_crc.o
                                 0x24 (size before relaxing)
 .comment       0x00000000       0x24 obj/default/crc.o
 .comment       0x00000000       0x24 obj/default/crc_main.o
 .comment       0x00000000       0x24 e:/softwares/quartus2/nios2eds/bin/gnu/h-i686-mingw32/bin/../lib/gcc/nios2-elf/4.7.3/mno-hw-mul\libgcc.a(lib2-divmod.o)
 .comment       0x00000000       0x24 e:/softwares/quartus2/nios2eds/bin/gnu/h-i686-mingw32/bin/../lib/gcc/nios2-elf/4.7.3/mno-hw-mul\libgcc.a(lib2-mul.o)
 .comment       0x00000000       0x24 e:/softwares/quartus2/nios2eds/bin/gnu/h-i686-mingw32/bin/../lib/gcc/nios2-elf/4.7.3/../../../../../H-i686-mingw32/nios2-elf/lib/mno-hw-mul\libc.a(lib_a-exit.o)
 .comment       0x00000000       0x24 e:/softwares/quartus2/nios2eds/bin/gnu/h-i686-mingw32/bin/../lib/gcc/nios2-elf/4.7.3/../../../../../H-i686-mingw32/nios2-elf/lib/mno-hw-mul\libc.a(lib_a-impure.o)
 .comment       0x00000000       0x24 e:/softwares/quartus2/nios2eds/bin/gnu/h-i686-mingw32/bin/../lib/gcc/nios2-elf/4.7.3/../../../../../H-i686-mingw32/nios2-elf/lib/mno-hw-mul\libc.a(lib_a-printf.o)
 .comment       0x00000000       0x24 e:/softwares/quartus2/nios2eds/bin/gnu/h-i686-mingw32/bin/../lib/gcc/nios2-elf/4.7.3/../../../../../H-i686-mingw32/nios2-elf/lib/mno-hw-mul\libc.a(lib_a-puts.o)
 .comment       0x00000000       0x24 e:/softwares/quartus2/nios2eds/bin/gnu/h-i686-mingw32/bin/../lib/gcc/nios2-elf/4.7.3/../../../../../H-i686-mingw32/nios2-elf/lib/mno-hw-mul\libc.a(lib_a-strlen.o)
 .comment       0x00000000       0x24 e:/softwares/quartus2/nios2eds/bin/gnu/h-i686-mingw32/bin/../lib/gcc/nios2-elf/4.7.3/../../../../../H-i686-mingw32/nios2-elf/lib/mno-hw-mul\libc.a(lib_a-vfprintf.o)
 .comment       0x00000000       0x24 e:/softwares/quartus2/nios2eds/bin/gnu/h-i686-mingw32/bin/../lib/gcc/nios2-elf/4.7.3/../../../../../H-i686-mingw32/nios2-elf/lib/mno-hw-mul\libc.a(lib_a-wsetup.o)
 .comment       0x00000000       0x24 e:/softwares/quartus2/nios2eds/bin/gnu/h-i686-mingw32/bin/../lib/gcc/nios2-elf/4.7.3/../../../../../H-i686-mingw32/nios2-elf/lib/mno-hw-mul\libc.a(lib_a-__call_atexit.o)
 .comment       0x00000000       0x24 e:/softwares/quartus2/nios2eds/bin/gnu/h-i686-mingw32/bin/../lib/gcc/nios2-elf/4.7.3/../../../../../H-i686-mingw32/nios2-elf/lib/mno-hw-mul\libc.a(lib_a-dtoa.o)
 .comment       0x00000000       0x24 e:/softwares/quartus2/nios2eds/bin/gnu/h-i686-mingw32/bin/../lib/gcc/nios2-elf/4.7.3/../../../../../H-i686-mingw32/nios2-elf/lib/mno-hw-mul\libc.a(lib_a-fflush.o)
 .comment       0x00000000       0x24 e:/softwares/quartus2/nios2eds/bin/gnu/h-i686-mingw32/bin/../lib/gcc/nios2-elf/4.7.3/../../../../../H-i686-mingw32/nios2-elf/lib/mno-hw-mul\libc.a(lib_a-findfp.o)
 .comment       0x00000000       0x24 e:/softwares/quartus2/nios2eds/bin/gnu/h-i686-mingw32/bin/../lib/gcc/nios2-elf/4.7.3/../../../../../H-i686-mingw32/nios2-elf/lib/mno-hw-mul\libc.a(lib_a-freer.o)
 .comment       0x00000000       0x24 e:/softwares/quartus2/nios2eds/bin/gnu/h-i686-mingw32/bin/../lib/gcc/nios2-elf/4.7.3/../../../../../H-i686-mingw32/nios2-elf/lib/mno-hw-mul\libc.a(lib_a-fvwrite.o)
 .comment       0x00000000       0x24 e:/softwares/quartus2/nios2eds/bin/gnu/h-i686-mingw32/bin/../lib/gcc/nios2-elf/4.7.3/../../../../../H-i686-mingw32/nios2-elf/lib/mno-hw-mul\libc.a(lib_a-fwalk.o)
 .comment       0x00000000       0x24 e:/softwares/quartus2/nios2eds/bin/gnu/h-i686-mingw32/bin/../lib/gcc/nios2-elf/4.7.3/../../../../../H-i686-mingw32/nios2-elf/lib/mno-hw-mul\libc.a(lib_a-locale.o)
 .comment       0x00000000       0x24 e:/softwares/quartus2/nios2eds/bin/gnu/h-i686-mingw32/bin/../lib/gcc/nios2-elf/4.7.3/../../../../../H-i686-mingw32/nios2-elf/lib/mno-hw-mul\libc.a(lib_a-makebuf.o)
 .comment       0x00000000       0x24 e:/softwares/quartus2/nios2eds/bin/gnu/h-i686-mingw32/bin/../lib/gcc/nios2-elf/4.7.3/../../../../../H-i686-mingw32/nios2-elf/lib/mno-hw-mul\libc.a(lib_a-mallocr.o)
 .comment       0x00000000       0x24 e:/softwares/quartus2/nios2eds/bin/gnu/h-i686-mingw32/bin/../lib/gcc/nios2-elf/4.7.3/../../../../../H-i686-mingw32/nios2-elf/lib/mno-hw-mul\libc.a(lib_a-memchr.o)
 .comment       0x00000000       0x24 e:/softwares/quartus2/nios2eds/bin/gnu/h-i686-mingw32/bin/../lib/gcc/nios2-elf/4.7.3/../../../../../H-i686-mingw32/nios2-elf/lib/mno-hw-mul\libc.a(lib_a-memcpy.o)
 .comment       0x00000000       0x24 e:/softwares/quartus2/nios2eds/bin/gnu/h-i686-mingw32/bin/../lib/gcc/nios2-elf/4.7.3/../../../../../H-i686-mingw32/nios2-elf/lib/mno-hw-mul\libc.a(lib_a-memmove.o)
 .comment       0x00000000       0x24 e:/softwares/quartus2/nios2eds/bin/gnu/h-i686-mingw32/bin/../lib/gcc/nios2-elf/4.7.3/../../../../../H-i686-mingw32/nios2-elf/lib/mno-hw-mul\libc.a(lib_a-memset.o)
 .comment       0x00000000       0x24 e:/softwares/quartus2/nios2eds/bin/gnu/h-i686-mingw32/bin/../lib/gcc/nios2-elf/4.7.3/../../../../../H-i686-mingw32/nios2-elf/lib/mno-hw-mul\libc.a(lib_a-mprec.o)
 .comment       0x00000000       0x24 e:/softwares/quartus2/nios2eds/bin/gnu/h-i686-mingw32/bin/../lib/gcc/nios2-elf/4.7.3/../../../../../H-i686-mingw32/nios2-elf/lib/mno-hw-mul\libc.a(lib_a-reallocr.o)
 .comment       0x00000000       0x24 e:/softwares/quartus2/nios2eds/bin/gnu/h-i686-mingw32/bin/../lib/gcc/nios2-elf/4.7.3/../../../../../H-i686-mingw32/nios2-elf/lib/mno-hw-mul\libc.a(lib_a-s_isinfd.o)
 .comment       0x00000000       0x24 e:/softwares/quartus2/nios2eds/bin/gnu/h-i686-mingw32/bin/../lib/gcc/nios2-elf/4.7.3/../../../../../H-i686-mingw32/nios2-elf/lib/mno-hw-mul\libc.a(lib_a-s_isnand.o)
 .comment       0x00000000       0x24 e:/softwares/quartus2/nios2eds/bin/gnu/h-i686-mingw32/bin/../lib/gcc/nios2-elf/4.7.3/../../../../../H-i686-mingw32/nios2-elf/lib/mno-hw-mul\libc.a(lib_a-sbrkr.o)
 .comment       0x00000000       0x24 e:/softwares/quartus2/nios2eds/bin/gnu/h-i686-mingw32/bin/../lib/gcc/nios2-elf/4.7.3/../../../../../H-i686-mingw32/nios2-elf/lib/mno-hw-mul\libc.a(lib_a-stdio.o)
 .comment       0x00000000       0x24 e:/softwares/quartus2/nios2eds/bin/gnu/h-i686-mingw32/bin/../lib/gcc/nios2-elf/4.7.3/../../../../../H-i686-mingw32/nios2-elf/lib/mno-hw-mul\libc.a(lib_a-strcmp.o)
 .comment       0x00000000       0x24 e:/softwares/quartus2/nios2eds/bin/gnu/h-i686-mingw32/bin/../lib/gcc/nios2-elf/4.7.3/../../../../../H-i686-mingw32/nios2-elf/lib/mno-hw-mul\libc.a(lib_a-writer.o)
 .comment       0x00000000       0x24 e:/softwares/quartus2/nios2eds/bin/gnu/h-i686-mingw32/bin/../lib/gcc/nios2-elf/4.7.3/../../../../../H-i686-mingw32/nios2-elf/lib/mno-hw-mul\libc.a(lib_a-callocr.o)
 .comment       0x00000000       0x24 e:/softwares/quartus2/nios2eds/bin/gnu/h-i686-mingw32/bin/../lib/gcc/nios2-elf/4.7.3/../../../../../H-i686-mingw32/nios2-elf/lib/mno-hw-mul\libc.a(lib_a-closer.o)
 .comment       0x00000000       0x24 e:/softwares/quartus2/nios2eds/bin/gnu/h-i686-mingw32/bin/../lib/gcc/nios2-elf/4.7.3/../../../../../H-i686-mingw32/nios2-elf/lib/mno-hw-mul\libc.a(lib_a-fclose.o)
 .comment       0x00000000       0x24 e:/softwares/quartus2/nios2eds/bin/gnu/h-i686-mingw32/bin/../lib/gcc/nios2-elf/4.7.3/../../../../../H-i686-mingw32/nios2-elf/lib/mno-hw-mul\libc.a(lib_a-fstatr.o)
 .comment       0x00000000       0x24 e:/softwares/quartus2/nios2eds/bin/gnu/h-i686-mingw32/bin/../lib/gcc/nios2-elf/4.7.3/../../../../../H-i686-mingw32/nios2-elf/lib/mno-hw-mul\libc.a(lib_a-int_errno.o)
 .comment       0x00000000       0x24 e:/softwares/quartus2/nios2eds/bin/gnu/h-i686-mingw32/bin/../lib/gcc/nios2-elf/4.7.3/../../../../../H-i686-mingw32/nios2-elf/lib/mno-hw-mul\libc.a(lib_a-isattyr.o)
 .comment       0x00000000       0x24 e:/softwares/quartus2/nios2eds/bin/gnu/h-i686-mingw32/bin/../lib/gcc/nios2-elf/4.7.3/../../../../../H-i686-mingw32/nios2-elf/lib/mno-hw-mul\libc.a(lib_a-lseekr.o)
 .comment       0x00000000       0x24 e:/softwares/quartus2/nios2eds/bin/gnu/h-i686-mingw32/bin/../lib/gcc/nios2-elf/4.7.3/../../../../../H-i686-mingw32/nios2-elf/lib/mno-hw-mul\libc.a(lib_a-readr.o)
 .comment       0x00000000       0x24 e:/softwares/quartus2/nios2eds/bin/gnu/h-i686-mingw32/bin/../lib/gcc/nios2-elf/4.7.3/mno-hw-mul\libgcc.a(_udivdi3.o)
 .comment       0x00000000       0x24 e:/softwares/quartus2/nios2eds/bin/gnu/h-i686-mingw32/bin/../lib/gcc/nios2-elf/4.7.3/mno-hw-mul\libgcc.a(_umoddi3.o)
 .comment       0x00000000       0x24 e:/softwares/quartus2/nios2eds/bin/gnu/h-i686-mingw32/bin/../lib/gcc/nios2-elf/4.7.3/mno-hw-mul\libgcc.a(_addsub_df.o)
 .comment       0x00000000       0x24 e:/softwares/quartus2/nios2eds/bin/gnu/h-i686-mingw32/bin/../lib/gcc/nios2-elf/4.7.3/mno-hw-mul\libgcc.a(_mul_df.o)
 .comment       0x00000000       0x24 e:/softwares/quartus2/nios2eds/bin/gnu/h-i686-mingw32/bin/../lib/gcc/nios2-elf/4.7.3/mno-hw-mul\libgcc.a(_div_df.o)
 .comment       0x00000000       0x24 e:/softwares/quartus2/nios2eds/bin/gnu/h-i686-mingw32/bin/../lib/gcc/nios2-elf/4.7.3/mno-hw-mul\libgcc.a(_eq_df.o)
 .comment       0x00000000       0x24 e:/softwares/quartus2/nios2eds/bin/gnu/h-i686-mingw32/bin/../lib/gcc/nios2-elf/4.7.3/mno-hw-mul\libgcc.a(_ne_df.o)
 .comment       0x00000000       0x24 e:/softwares/quartus2/nios2eds/bin/gnu/h-i686-mingw32/bin/../lib/gcc/nios2-elf/4.7.3/mno-hw-mul\libgcc.a(_gt_df.o)
 .comment       0x00000000       0x24 e:/softwares/quartus2/nios2eds/bin/gnu/h-i686-mingw32/bin/../lib/gcc/nios2-elf/4.7.3/mno-hw-mul\libgcc.a(_ge_df.o)
 .comment       0x00000000       0x24 e:/softwares/quartus2/nios2eds/bin/gnu/h-i686-mingw32/bin/../lib/gcc/nios2-elf/4.7.3/mno-hw-mul\libgcc.a(_lt_df.o)
 .comment       0x00000000       0x24 e:/softwares/quartus2/nios2eds/bin/gnu/h-i686-mingw32/bin/../lib/gcc/nios2-elf/4.7.3/mno-hw-mul\libgcc.a(_si_to_df.o)
 .comment       0x00000000       0x24 e:/softwares/quartus2/nios2eds/bin/gnu/h-i686-mingw32/bin/../lib/gcc/nios2-elf/4.7.3/mno-hw-mul\libgcc.a(_df_to_si.o)
 .comment       0x00000000       0x24 e:/softwares/quartus2/nios2eds/bin/gnu/h-i686-mingw32/bin/../lib/gcc/nios2-elf/4.7.3/mno-hw-mul\libgcc.a(_thenan_df.o)
 .comment       0x00000000       0x24 e:/softwares/quartus2/nios2eds/bin/gnu/h-i686-mingw32/bin/../lib/gcc/nios2-elf/4.7.3/mno-hw-mul\libgcc.a(_usi_to_df.o)
 .comment       0x00000000       0x24 e:/softwares/quartus2/nios2eds/bin/gnu/h-i686-mingw32/bin/../lib/gcc/nios2-elf/4.7.3/mno-hw-mul\libgcc.a(_muldi3.o)
 .comment       0x00000000       0x24 e:/softwares/quartus2/nios2eds/bin/gnu/h-i686-mingw32/bin/../lib/gcc/nios2-elf/4.7.3/mno-hw-mul\libgcc.a(_clz.o)
 .comment       0x00000000       0x24 e:/softwares/quartus2/nios2eds/bin/gnu/h-i686-mingw32/bin/../lib/gcc/nios2-elf/4.7.3/mno-hw-mul\libgcc.a(_clzsi2.o)
 .comment       0x00000000       0x24 e:/softwares/quartus2/nios2eds/bin/gnu/h-i686-mingw32/bin/../lib/gcc/nios2-elf/4.7.3/mno-hw-mul\libgcc.a(_pack_df.o)
 .comment       0x00000000       0x24 e:/softwares/quartus2/nios2eds/bin/gnu/h-i686-mingw32/bin/../lib/gcc/nios2-elf/4.7.3/mno-hw-mul\libgcc.a(_unpack_df.o)
 .comment       0x00000000       0x24 e:/softwares/quartus2/nios2eds/bin/gnu/h-i686-mingw32/bin/../lib/gcc/nios2-elf/4.7.3/mno-hw-mul\libgcc.a(_fpcmp_parts_df.o)
 .comment       0x00000000       0x24 e:/softwares/quartus2/nios2eds/bin/gnu/h-i686-mingw32/bin/../lib/gcc/nios2-elf/4.7.3/mno-hw-mul\libgcc.a(_lshrdi3.o)
 .comment       0x00000000       0x24 e:/softwares/quartus2/nios2eds/bin/gnu/h-i686-mingw32/bin/../lib/gcc/nios2-elf/4.7.3/mno-hw-mul\libgcc.a(_ashldi3.o)
 .comment       0x00000000       0x24 ../lab_crc_bsp/\libhal_bsp.a(alt_close.o)
 .comment       0x00000000       0x24 ../lab_crc_bsp/\libhal_bsp.a(alt_dev.o)
 .comment       0x00000000       0x24 ../lab_crc_bsp/\libhal_bsp.a(alt_errno.o)
 .comment       0x00000000       0x24 ../lab_crc_bsp/\libhal_bsp.a(alt_exit.o)
 .comment       0x00000000       0x24 ../lab_crc_bsp/\libhal_bsp.a(alt_fstat.o)
 .comment       0x00000000       0x24 ../lab_crc_bsp/\libhal_bsp.a(alt_isatty.o)
 .comment       0x00000000       0x24 ../lab_crc_bsp/\libhal_bsp.a(alt_load.o)
 .comment       0x00000000       0x24 ../lab_crc_bsp/\libhal_bsp.a(alt_lseek.o)
 .comment       0x00000000       0x24 ../lab_crc_bsp/\libhal_bsp.a(alt_main.o)
 .comment       0x00000000       0x24 ../lab_crc_bsp/\libhal_bsp.a(alt_malloc_lock.o)
 .comment       0x00000000       0x24 ../lab_crc_bsp/\libhal_bsp.a(alt_read.o)
 .comment       0x00000000       0x24 ../lab_crc_bsp/\libhal_bsp.a(alt_release_fd.o)
 .comment       0x00000000       0x24 ../lab_crc_bsp/\libhal_bsp.a(alt_sbrk.o)
 .comment       0x00000000       0x24 ../lab_crc_bsp/\libhal_bsp.a(alt_write.o)
 .comment       0x00000000       0x24 ../lab_crc_bsp/\libhal_bsp.a(alt_sys_init.o)
 .comment       0x00000000       0x24 ../lab_crc_bsp/\libhal_bsp.a(altera_avalon_jtag_uart_fd.o)
 .comment       0x00000000       0x24 ../lab_crc_bsp/\libhal_bsp.a(altera_avalon_jtag_uart_init.o)
 .comment       0x00000000       0x24 ../lab_crc_bsp/\libhal_bsp.a(altera_avalon_jtag_uart_ioctl.o)
 .comment       0x00000000       0x24 ../lab_crc_bsp/\libhal_bsp.a(altera_avalon_jtag_uart_read.o)
 .comment       0x00000000       0x24 ../lab_crc_bsp/\libhal_bsp.a(altera_avalon_jtag_uart_write.o)
 .comment       0x00000000       0x24 ../lab_crc_bsp/\libhal_bsp.a(altera_avalon_timer_sc.o)
 .comment       0x00000000       0x24 ../lab_crc_bsp/\libhal_bsp.a(altera_avalon_timer_ts.o)
 .comment       0x00000000       0x24 ../lab_crc_bsp/\libhal_bsp.a(altera_avalon_timer_vars.o)
 .comment       0x00000000       0x24 ../lab_crc_bsp/\libhal_bsp.a(alt_alarm_start.o)
 .comment       0x00000000       0x24 ../lab_crc_bsp/\libhal_bsp.a(alt_dcache_flush_all.o)
 .comment       0x00000000       0x24 ../lab_crc_bsp/\libhal_bsp.a(alt_dev_llist_insert.o)
 .comment       0x00000000       0x24 ../lab_crc_bsp/\libhal_bsp.a(alt_do_ctors.o)
 .comment       0x00000000       0x24 ../lab_crc_bsp/\libhal_bsp.a(alt_do_dtors.o)
 .comment       0x00000000       0x24 ../lab_crc_bsp/\libhal_bsp.a(alt_icache_flush_all.o)
 .comment       0x00000000       0x24 ../lab_crc_bsp/\libhal_bsp.a(alt_iic.o)
 .comment       0x00000000       0x24 ../lab_crc_bsp/\libhal_bsp.a(alt_iic_isr_register.o)
 .comment       0x00000000       0x24 ../lab_crc_bsp/\libhal_bsp.a(alt_io_redirect.o)
 .comment       0x00000000       0x24 ../lab_crc_bsp/\libhal_bsp.a(alt_irq_handler.o)
 .comment       0x00000000       0x24 ../lab_crc_bsp/\libhal_bsp.a(alt_irq_vars.o)
 .comment       0x00000000       0x24 ../lab_crc_bsp/\libhal_bsp.a(alt_open.o)
 .comment       0x00000000       0x24 ../lab_crc_bsp/\libhal_bsp.a(alt_tick.o)
 .comment       0x00000000       0x24 ../lab_crc_bsp/\libhal_bsp.a(altera_nios2_qsys_irq.o)
 .comment       0x00000000       0x24 ../lab_crc_bsp/\libhal_bsp.a(alt_find_dev.o)
 .comment       0x00000000       0x24 ../lab_crc_bsp/\libhal_bsp.a(alt_find_file.o)
 .comment       0x00000000       0x24 ../lab_crc_bsp/\libhal_bsp.a(alt_get_fd.o)
 .comment       0x00000000       0x24 e:/softwares/quartus2/nios2eds/bin/gnu/h-i686-mingw32/bin/../lib/gcc/nios2-elf/4.7.3/../../../../../H-i686-mingw32/nios2-elf/lib/mno-hw-mul\libc.a(lib_a-atexit.o)
 .comment       0x00000000       0x24 e:/softwares/quartus2/nios2eds/bin/gnu/h-i686-mingw32/bin/../lib/gcc/nios2-elf/4.7.3/../../../../../H-i686-mingw32/nios2-elf/lib/mno-hw-mul\libc.a(lib_a-memcmp.o)
 .comment       0x00000000       0x24 e:/softwares/quartus2/nios2eds/bin/gnu/h-i686-mingw32/bin/../lib/gcc/nios2-elf/4.7.3/../../../../../H-i686-mingw32/nios2-elf/lib/mno-hw-mul\libc.a(lib_a-__atexit.o)

.debug
 *(.debug)

.line
 *(.line)

.debug_srcinfo
 *(.debug_srcinfo)

.debug_sfnames
 *(.debug_sfnames)

.debug_aranges  0x00000000      0xdb8
 *(.debug_aranges)
 .debug_aranges
                0x00000000       0x28 ../lab_crc_bsp//obj/HAL/src/crt0.o
 .debug_aranges
                0x00000028       0x20 obj/default/ci_crc.o
 .debug_aranges
                0x00000048       0x20 obj/default/crc.o
 .debug_aranges
                0x00000068       0x20 obj/default/crc_main.o
 .debug_aranges
                0x00000088       0x20 e:/softwares/quartus2/nios2eds/bin/gnu/h-i686-mingw32/bin/../lib/gcc/nios2-elf/4.7.3/mno-hw-mul\libgcc.a(lib2-divmod.o)
 .debug_aranges
                0x000000a8       0x20 e:/softwares/quartus2/nios2eds/bin/gnu/h-i686-mingw32/bin/../lib/gcc/nios2-elf/4.7.3/mno-hw-mul\libgcc.a(lib2-mul.o)
 .debug_aranges
                0x000000c8       0x20 e:/softwares/quartus2/nios2eds/bin/gnu/h-i686-mingw32/bin/../lib/gcc/nios2-elf/4.7.3/../../../../../H-i686-mingw32/nios2-elf/lib/mno-hw-mul\libc.a(lib_a-exit.o)
 .debug_aranges
                0x000000e8       0x18 e:/softwares/quartus2/nios2eds/bin/gnu/h-i686-mingw32/bin/../lib/gcc/nios2-elf/4.7.3/../../../../../H-i686-mingw32/nios2-elf/lib/mno-hw-mul\libc.a(lib_a-impure.o)
 .debug_aranges
                0x00000100       0x20 e:/softwares/quartus2/nios2eds/bin/gnu/h-i686-mingw32/bin/../lib/gcc/nios2-elf/4.7.3/../../../../../H-i686-mingw32/nios2-elf/lib/mno-hw-mul\libc.a(lib_a-printf.o)
 .debug_aranges
                0x00000120       0x20 e:/softwares/quartus2/nios2eds/bin/gnu/h-i686-mingw32/bin/../lib/gcc/nios2-elf/4.7.3/../../../../../H-i686-mingw32/nios2-elf/lib/mno-hw-mul\libc.a(lib_a-puts.o)
 .debug_aranges
                0x00000140       0x20 e:/softwares/quartus2/nios2eds/bin/gnu/h-i686-mingw32/bin/../lib/gcc/nios2-elf/4.7.3/../../../../../H-i686-mingw32/nios2-elf/lib/mno-hw-mul\libc.a(lib_a-strlen.o)
 .debug_aranges
                0x00000160       0x20 e:/softwares/quartus2/nios2eds/bin/gnu/h-i686-mingw32/bin/../lib/gcc/nios2-elf/4.7.3/../../../../../H-i686-mingw32/nios2-elf/lib/mno-hw-mul\libc.a(lib_a-vfprintf.o)
 .debug_aranges
                0x00000180       0x20 e:/softwares/quartus2/nios2eds/bin/gnu/h-i686-mingw32/bin/../lib/gcc/nios2-elf/4.7.3/../../../../../H-i686-mingw32/nios2-elf/lib/mno-hw-mul\libc.a(lib_a-wsetup.o)
 .debug_aranges
                0x000001a0       0x20 e:/softwares/quartus2/nios2eds/bin/gnu/h-i686-mingw32/bin/../lib/gcc/nios2-elf/4.7.3/../../../../../H-i686-mingw32/nios2-elf/lib/mno-hw-mul\libc.a(lib_a-__call_atexit.o)
 .debug_aranges
                0x000001c0       0x20 e:/softwares/quartus2/nios2eds/bin/gnu/h-i686-mingw32/bin/../lib/gcc/nios2-elf/4.7.3/../../../../../H-i686-mingw32/nios2-elf/lib/mno-hw-mul\libc.a(lib_a-dtoa.o)
 .debug_aranges
                0x000001e0       0x20 e:/softwares/quartus2/nios2eds/bin/gnu/h-i686-mingw32/bin/../lib/gcc/nios2-elf/4.7.3/../../../../../H-i686-mingw32/nios2-elf/lib/mno-hw-mul\libc.a(lib_a-fflush.o)
 .debug_aranges
                0x00000200       0x20 e:/softwares/quartus2/nios2eds/bin/gnu/h-i686-mingw32/bin/../lib/gcc/nios2-elf/4.7.3/../../../../../H-i686-mingw32/nios2-elf/lib/mno-hw-mul\libc.a(lib_a-findfp.o)
 .debug_aranges
                0x00000220       0x20 e:/softwares/quartus2/nios2eds/bin/gnu/h-i686-mingw32/bin/../lib/gcc/nios2-elf/4.7.3/../../../../../H-i686-mingw32/nios2-elf/lib/mno-hw-mul\libc.a(lib_a-freer.o)
 .debug_aranges
                0x00000240       0x20 e:/softwares/quartus2/nios2eds/bin/gnu/h-i686-mingw32/bin/../lib/gcc/nios2-elf/4.7.3/../../../../../H-i686-mingw32/nios2-elf/lib/mno-hw-mul\libc.a(lib_a-fvwrite.o)
 .debug_aranges
                0x00000260       0x20 e:/softwares/quartus2/nios2eds/bin/gnu/h-i686-mingw32/bin/../lib/gcc/nios2-elf/4.7.3/../../../../../H-i686-mingw32/nios2-elf/lib/mno-hw-mul\libc.a(lib_a-fwalk.o)
 .debug_aranges
                0x00000280       0x20 e:/softwares/quartus2/nios2eds/bin/gnu/h-i686-mingw32/bin/../lib/gcc/nios2-elf/4.7.3/../../../../../H-i686-mingw32/nios2-elf/lib/mno-hw-mul\libc.a(lib_a-locale.o)
 .debug_aranges
                0x000002a0       0x20 e:/softwares/quartus2/nios2eds/bin/gnu/h-i686-mingw32/bin/../lib/gcc/nios2-elf/4.7.3/../../../../../H-i686-mingw32/nios2-elf/lib/mno-hw-mul\libc.a(lib_a-makebuf.o)
 .debug_aranges
                0x000002c0       0x20 e:/softwares/quartus2/nios2eds/bin/gnu/h-i686-mingw32/bin/../lib/gcc/nios2-elf/4.7.3/../../../../../H-i686-mingw32/nios2-elf/lib/mno-hw-mul\libc.a(lib_a-mallocr.o)
 .debug_aranges
                0x000002e0       0x20 e:/softwares/quartus2/nios2eds/bin/gnu/h-i686-mingw32/bin/../lib/gcc/nios2-elf/4.7.3/../../../../../H-i686-mingw32/nios2-elf/lib/mno-hw-mul\libc.a(lib_a-memchr.o)
 .debug_aranges
                0x00000300       0x20 e:/softwares/quartus2/nios2eds/bin/gnu/h-i686-mingw32/bin/../lib/gcc/nios2-elf/4.7.3/../../../../../H-i686-mingw32/nios2-elf/lib/mno-hw-mul\libc.a(lib_a-memcpy.o)
 .debug_aranges
                0x00000320       0x20 e:/softwares/quartus2/nios2eds/bin/gnu/h-i686-mingw32/bin/../lib/gcc/nios2-elf/4.7.3/../../../../../H-i686-mingw32/nios2-elf/lib/mno-hw-mul\libc.a(lib_a-memmove.o)
 .debug_aranges
                0x00000340       0x20 e:/softwares/quartus2/nios2eds/bin/gnu/h-i686-mingw32/bin/../lib/gcc/nios2-elf/4.7.3/../../../../../H-i686-mingw32/nios2-elf/lib/mno-hw-mul\libc.a(lib_a-memset.o)
 .debug_aranges
                0x00000360       0x20 e:/softwares/quartus2/nios2eds/bin/gnu/h-i686-mingw32/bin/../lib/gcc/nios2-elf/4.7.3/../../../../../H-i686-mingw32/nios2-elf/lib/mno-hw-mul\libc.a(lib_a-mprec.o)
 .debug_aranges
                0x00000380       0x20 e:/softwares/quartus2/nios2eds/bin/gnu/h-i686-mingw32/bin/../lib/gcc/nios2-elf/4.7.3/../../../../../H-i686-mingw32/nios2-elf/lib/mno-hw-mul\libc.a(lib_a-reallocr.o)
 .debug_aranges
                0x000003a0       0x20 e:/softwares/quartus2/nios2eds/bin/gnu/h-i686-mingw32/bin/../lib/gcc/nios2-elf/4.7.3/../../../../../H-i686-mingw32/nios2-elf/lib/mno-hw-mul\libc.a(lib_a-s_isinfd.o)
 .debug_aranges
                0x000003c0       0x20 e:/softwares/quartus2/nios2eds/bin/gnu/h-i686-mingw32/bin/../lib/gcc/nios2-elf/4.7.3/../../../../../H-i686-mingw32/nios2-elf/lib/mno-hw-mul\libc.a(lib_a-s_isnand.o)
 .debug_aranges
                0x000003e0       0x20 e:/softwares/quartus2/nios2eds/bin/gnu/h-i686-mingw32/bin/../lib/gcc/nios2-elf/4.7.3/../../../../../H-i686-mingw32/nios2-elf/lib/mno-hw-mul\libc.a(lib_a-sbrkr.o)
 .debug_aranges
                0x00000400       0x20 e:/softwares/quartus2/nios2eds/bin/gnu/h-i686-mingw32/bin/../lib/gcc/nios2-elf/4.7.3/../../../../../H-i686-mingw32/nios2-elf/lib/mno-hw-mul\libc.a(lib_a-stdio.o)
 .debug_aranges
                0x00000420       0x20 e:/softwares/quartus2/nios2eds/bin/gnu/h-i686-mingw32/bin/../lib/gcc/nios2-elf/4.7.3/../../../../../H-i686-mingw32/nios2-elf/lib/mno-hw-mul\libc.a(lib_a-strcmp.o)
 .debug_aranges
                0x00000440       0x20 e:/softwares/quartus2/nios2eds/bin/gnu/h-i686-mingw32/bin/../lib/gcc/nios2-elf/4.7.3/../../../../../H-i686-mingw32/nios2-elf/lib/mno-hw-mul\libc.a(lib_a-writer.o)
 .debug_aranges
                0x00000460       0x20 e:/softwares/quartus2/nios2eds/bin/gnu/h-i686-mingw32/bin/../lib/gcc/nios2-elf/4.7.3/../../../../../H-i686-mingw32/nios2-elf/lib/mno-hw-mul\libc.a(lib_a-callocr.o)
 .debug_aranges
                0x00000480       0x20 e:/softwares/quartus2/nios2eds/bin/gnu/h-i686-mingw32/bin/../lib/gcc/nios2-elf/4.7.3/../../../../../H-i686-mingw32/nios2-elf/lib/mno-hw-mul\libc.a(lib_a-closer.o)
 .debug_aranges
                0x000004a0       0x20 e:/softwares/quartus2/nios2eds/bin/gnu/h-i686-mingw32/bin/../lib/gcc/nios2-elf/4.7.3/../../../../../H-i686-mingw32/nios2-elf/lib/mno-hw-mul\libc.a(lib_a-fclose.o)
 .debug_aranges
                0x000004c0       0x20 e:/softwares/quartus2/nios2eds/bin/gnu/h-i686-mingw32/bin/../lib/gcc/nios2-elf/4.7.3/../../../../../H-i686-mingw32/nios2-elf/lib/mno-hw-mul\libc.a(lib_a-fstatr.o)
 .debug_aranges
                0x000004e0       0x18 e:/softwares/quartus2/nios2eds/bin/gnu/h-i686-mingw32/bin/../lib/gcc/nios2-elf/4.7.3/../../../../../H-i686-mingw32/nios2-elf/lib/mno-hw-mul\libc.a(lib_a-int_errno.o)
 .debug_aranges
                0x000004f8       0x20 e:/softwares/quartus2/nios2eds/bin/gnu/h-i686-mingw32/bin/../lib/gcc/nios2-elf/4.7.3/../../../../../H-i686-mingw32/nios2-elf/lib/mno-hw-mul\libc.a(lib_a-isattyr.o)
 .debug_aranges
                0x00000518       0x20 e:/softwares/quartus2/nios2eds/bin/gnu/h-i686-mingw32/bin/../lib/gcc/nios2-elf/4.7.3/../../../../../H-i686-mingw32/nios2-elf/lib/mno-hw-mul\libc.a(lib_a-lseekr.o)
 .debug_aranges
                0x00000538       0x20 e:/softwares/quartus2/nios2eds/bin/gnu/h-i686-mingw32/bin/../lib/gcc/nios2-elf/4.7.3/../../../../../H-i686-mingw32/nios2-elf/lib/mno-hw-mul\libc.a(lib_a-readr.o)
 .debug_aranges
                0x00000558       0x20 e:/softwares/quartus2/nios2eds/bin/gnu/h-i686-mingw32/bin/../lib/gcc/nios2-elf/4.7.3/mno-hw-mul\libgcc.a(_udivdi3.o)
 .debug_aranges
                0x00000578       0x20 e:/softwares/quartus2/nios2eds/bin/gnu/h-i686-mingw32/bin/../lib/gcc/nios2-elf/4.7.3/mno-hw-mul\libgcc.a(_umoddi3.o)
 .debug_aranges
                0x00000598       0x20 e:/softwares/quartus2/nios2eds/bin/gnu/h-i686-mingw32/bin/../lib/gcc/nios2-elf/4.7.3/mno-hw-mul\libgcc.a(_addsub_df.o)
 .debug_aranges
                0x000005b8       0x20 e:/softwares/quartus2/nios2eds/bin/gnu/h-i686-mingw32/bin/../lib/gcc/nios2-elf/4.7.3/mno-hw-mul\libgcc.a(_mul_df.o)
 .debug_aranges
                0x000005d8       0x20 e:/softwares/quartus2/nios2eds/bin/gnu/h-i686-mingw32/bin/../lib/gcc/nios2-elf/4.7.3/mno-hw-mul\libgcc.a(_div_df.o)
 .debug_aranges
                0x000005f8       0x20 e:/softwares/quartus2/nios2eds/bin/gnu/h-i686-mingw32/bin/../lib/gcc/nios2-elf/4.7.3/mno-hw-mul\libgcc.a(_eq_df.o)
 .debug_aranges
                0x00000618       0x20 e:/softwares/quartus2/nios2eds/bin/gnu/h-i686-mingw32/bin/../lib/gcc/nios2-elf/4.7.3/mno-hw-mul\libgcc.a(_ne_df.o)
 .debug_aranges
                0x00000638       0x20 e:/softwares/quartus2/nios2eds/bin/gnu/h-i686-mingw32/bin/../lib/gcc/nios2-elf/4.7.3/mno-hw-mul\libgcc.a(_gt_df.o)
 .debug_aranges
                0x00000658       0x20 e:/softwares/quartus2/nios2eds/bin/gnu/h-i686-mingw32/bin/../lib/gcc/nios2-elf/4.7.3/mno-hw-mul\libgcc.a(_ge_df.o)
 .debug_aranges
                0x00000678       0x20 e:/softwares/quartus2/nios2eds/bin/gnu/h-i686-mingw32/bin/../lib/gcc/nios2-elf/4.7.3/mno-hw-mul\libgcc.a(_lt_df.o)
 .debug_aranges
                0x00000698       0x20 e:/softwares/quartus2/nios2eds/bin/gnu/h-i686-mingw32/bin/../lib/gcc/nios2-elf/4.7.3/mno-hw-mul\libgcc.a(_si_to_df.o)
 .debug_aranges
                0x000006b8       0x20 e:/softwares/quartus2/nios2eds/bin/gnu/h-i686-mingw32/bin/../lib/gcc/nios2-elf/4.7.3/mno-hw-mul\libgcc.a(_df_to_si.o)
 .debug_aranges
                0x000006d8       0x18 e:/softwares/quartus2/nios2eds/bin/gnu/h-i686-mingw32/bin/../lib/gcc/nios2-elf/4.7.3/mno-hw-mul\libgcc.a(_thenan_df.o)
 .debug_aranges
                0x000006f0       0x20 e:/softwares/quartus2/nios2eds/bin/gnu/h-i686-mingw32/bin/../lib/gcc/nios2-elf/4.7.3/mno-hw-mul\libgcc.a(_usi_to_df.o)
 .debug_aranges
                0x00000710       0x20 e:/softwares/quartus2/nios2eds/bin/gnu/h-i686-mingw32/bin/../lib/gcc/nios2-elf/4.7.3/mno-hw-mul\libgcc.a(_muldi3.o)
 .debug_aranges
                0x00000730       0x18 e:/softwares/quartus2/nios2eds/bin/gnu/h-i686-mingw32/bin/../lib/gcc/nios2-elf/4.7.3/mno-hw-mul\libgcc.a(_clz.o)
 .debug_aranges
                0x00000748       0x20 e:/softwares/quartus2/nios2eds/bin/gnu/h-i686-mingw32/bin/../lib/gcc/nios2-elf/4.7.3/mno-hw-mul\libgcc.a(_clzsi2.o)
 .debug_aranges
                0x00000768       0x20 e:/softwares/quartus2/nios2eds/bin/gnu/h-i686-mingw32/bin/../lib/gcc/nios2-elf/4.7.3/mno-hw-mul\libgcc.a(_pack_df.o)
 .debug_aranges
                0x00000788       0x20 e:/softwares/quartus2/nios2eds/bin/gnu/h-i686-mingw32/bin/../lib/gcc/nios2-elf/4.7.3/mno-hw-mul\libgcc.a(_unpack_df.o)
 .debug_aranges
                0x000007a8       0x20 e:/softwares/quartus2/nios2eds/bin/gnu/h-i686-mingw32/bin/../lib/gcc/nios2-elf/4.7.3/mno-hw-mul\libgcc.a(_fpcmp_parts_df.o)
 .debug_aranges
                0x000007c8       0x20 e:/softwares/quartus2/nios2eds/bin/gnu/h-i686-mingw32/bin/../lib/gcc/nios2-elf/4.7.3/mno-hw-mul\libgcc.a(_lshrdi3.o)
 .debug_aranges
                0x000007e8       0x20 e:/softwares/quartus2/nios2eds/bin/gnu/h-i686-mingw32/bin/../lib/gcc/nios2-elf/4.7.3/mno-hw-mul\libgcc.a(_ashldi3.o)
 .debug_aranges
                0x00000808       0x20 ../lab_crc_bsp/\libhal_bsp.a(alt_close.o)
 .debug_aranges
                0x00000828       0x20 ../lab_crc_bsp/\libhal_bsp.a(alt_dev.o)
 .debug_aranges
                0x00000848       0x18 ../lab_crc_bsp/\libhal_bsp.a(alt_errno.o)
 .debug_aranges
                0x00000860       0x20 ../lab_crc_bsp/\libhal_bsp.a(alt_exit.o)
 .debug_aranges
                0x00000880       0x20 ../lab_crc_bsp/\libhal_bsp.a(alt_fstat.o)
 .debug_aranges
                0x000008a0       0x20 ../lab_crc_bsp/\libhal_bsp.a(alt_isatty.o)
 .debug_aranges
                0x000008c0       0x20 ../lab_crc_bsp/\libhal_bsp.a(alt_load.o)
 .debug_aranges
                0x000008e0       0x20 ../lab_crc_bsp/\libhal_bsp.a(alt_lseek.o)
 .debug_aranges
                0x00000900       0x20 ../lab_crc_bsp/\libhal_bsp.a(alt_main.o)
 .debug_aranges
                0x00000920       0x20 ../lab_crc_bsp/\libhal_bsp.a(alt_malloc_lock.o)
 .debug_aranges
                0x00000940       0x20 ../lab_crc_bsp/\libhal_bsp.a(alt_read.o)
 .debug_aranges
                0x00000960       0x20 ../lab_crc_bsp/\libhal_bsp.a(alt_release_fd.o)
 .debug_aranges
                0x00000980       0x20 ../lab_crc_bsp/\libhal_bsp.a(alt_sbrk.o)
 .debug_aranges
                0x000009a0       0x20 ../lab_crc_bsp/\libhal_bsp.a(alt_write.o)
 .debug_aranges
                0x000009c0       0x20 ../lab_crc_bsp/\libhal_bsp.a(alt_sys_init.o)
 .debug_aranges
                0x000009e0       0x20 ../lab_crc_bsp/\libhal_bsp.a(altera_avalon_jtag_uart_fd.o)
 .debug_aranges
                0x00000a00       0x20 ../lab_crc_bsp/\libhal_bsp.a(altera_avalon_jtag_uart_init.o)
 .debug_aranges
                0x00000a20       0x20 ../lab_crc_bsp/\libhal_bsp.a(altera_avalon_jtag_uart_ioctl.o)
 .debug_aranges
                0x00000a40       0x20 ../lab_crc_bsp/\libhal_bsp.a(altera_avalon_jtag_uart_read.o)
 .debug_aranges
                0x00000a60       0x20 ../lab_crc_bsp/\libhal_bsp.a(altera_avalon_jtag_uart_write.o)
 .debug_aranges
                0x00000a80       0x20 ../lab_crc_bsp/\libhal_bsp.a(altera_avalon_timer_sc.o)
 .debug_aranges
                0x00000aa0       0x20 ../lab_crc_bsp/\libhal_bsp.a(altera_avalon_timer_ts.o)
 .debug_aranges
                0x00000ac0       0x18 ../lab_crc_bsp/\libhal_bsp.a(altera_avalon_timer_vars.o)
 .debug_aranges
                0x00000ad8       0x20 ../lab_crc_bsp/\libhal_bsp.a(alt_alarm_start.o)
 .debug_aranges
                0x00000af8       0x20 ../lab_crc_bsp/\libhal_bsp.a(alt_dcache_flush_all.o)
 .debug_aranges
                0x00000b18       0x20 ../lab_crc_bsp/\libhal_bsp.a(alt_dev_llist_insert.o)
 .debug_aranges
                0x00000b38       0x20 ../lab_crc_bsp/\libhal_bsp.a(alt_do_ctors.o)
 .debug_aranges
                0x00000b58       0x20 ../lab_crc_bsp/\libhal_bsp.a(alt_do_dtors.o)
 .debug_aranges
                0x00000b78       0x20 ../lab_crc_bsp/\libhal_bsp.a(alt_icache_flush_all.o)
 .debug_aranges
                0x00000b98       0x20 ../lab_crc_bsp/\libhal_bsp.a(alt_iic.o)
 .debug_aranges
                0x00000bb8       0x20 ../lab_crc_bsp/\libhal_bsp.a(alt_iic_isr_register.o)
 .debug_aranges
                0x00000bd8       0x20 ../lab_crc_bsp/\libhal_bsp.a(alt_io_redirect.o)
 .debug_aranges
                0x00000bf8       0x30 ../lab_crc_bsp/\libhal_bsp.a(alt_irq_entry.o)
 .debug_aranges
                0x00000c28       0x20 ../lab_crc_bsp/\libhal_bsp.a(alt_irq_handler.o)
 .debug_aranges
                0x00000c48       0x18 ../lab_crc_bsp/\libhal_bsp.a(alt_irq_vars.o)
 .debug_aranges
                0x00000c60       0x20 ../lab_crc_bsp/\libhal_bsp.a(alt_open.o)
 .debug_aranges
                0x00000c80       0x20 ../lab_crc_bsp/\libhal_bsp.a(alt_tick.o)
 .debug_aranges
                0x00000ca0       0x20 ../lab_crc_bsp/\libhal_bsp.a(altera_nios2_qsys_irq.o)
 .debug_aranges
                0x00000cc0       0x38 ../lab_crc_bsp/\libhal_bsp.a(alt_exception_entry.o)
 .debug_aranges
                0x00000cf8       0x20 ../lab_crc_bsp/\libhal_bsp.a(alt_find_dev.o)
 .debug_aranges
                0x00000d18       0x20 ../lab_crc_bsp/\libhal_bsp.a(alt_find_file.o)
 .debug_aranges
                0x00000d38       0x20 ../lab_crc_bsp/\libhal_bsp.a(alt_get_fd.o)
 .debug_aranges
                0x00000d58       0x20 e:/softwares/quartus2/nios2eds/bin/gnu/h-i686-mingw32/bin/../lib/gcc/nios2-elf/4.7.3/../../../../../H-i686-mingw32/nios2-elf/lib/mno-hw-mul\libc.a(lib_a-atexit.o)
 .debug_aranges
                0x00000d78       0x20 e:/softwares/quartus2/nios2eds/bin/gnu/h-i686-mingw32/bin/../lib/gcc/nios2-elf/4.7.3/../../../../../H-i686-mingw32/nios2-elf/lib/mno-hw-mul\libc.a(lib_a-memcmp.o)
 .debug_aranges
                0x00000d98       0x20 e:/softwares/quartus2/nios2eds/bin/gnu/h-i686-mingw32/bin/../lib/gcc/nios2-elf/4.7.3/../../../../../H-i686-mingw32/nios2-elf/lib/mno-hw-mul\libc.a(lib_a-__atexit.o)

.debug_pubnames
 *(.debug_pubnames)

.debug_info     0x00000000    0x22e12
 *(.debug_info .gnu.linkonce.wi.*)
 .debug_info    0x00000000       0xc0 ../lab_crc_bsp//obj/HAL/src/crt0.o
 .debug_info    0x000000c0       0x93 obj/default/ci_crc.o
 .debug_info    0x00000153      0x1df obj/default/crc.o
 .debug_info    0x00000332      0x1d6 obj/default/crc_main.o
 .debug_info    0x00000508      0x289 e:/softwares/quartus2/nios2eds/bin/gnu/h-i686-mingw32/bin/../lib/gcc/nios2-elf/4.7.3/mno-hw-mul\libgcc.a(lib2-divmod.o)
 .debug_info    0x00000791       0xb8 e:/softwares/quartus2/nios2eds/bin/gnu/h-i686-mingw32/bin/../lib/gcc/nios2-elf/4.7.3/mno-hw-mul\libgcc.a(lib2-mul.o)
 .debug_info    0x00000849      0x993 e:/softwares/quartus2/nios2eds/bin/gnu/h-i686-mingw32/bin/../lib/gcc/nios2-elf/4.7.3/../../../../../H-i686-mingw32/nios2-elf/lib/mno-hw-mul\libc.a(lib_a-exit.o)
 .debug_info    0x000011dc      0x938 e:/softwares/quartus2/nios2eds/bin/gnu/h-i686-mingw32/bin/../lib/gcc/nios2-elf/4.7.3/../../../../../H-i686-mingw32/nios2-elf/lib/mno-hw-mul\libc.a(lib_a-impure.o)
 .debug_info    0x00001b14      0xa6c e:/softwares/quartus2/nios2eds/bin/gnu/h-i686-mingw32/bin/../lib/gcc/nios2-elf/4.7.3/../../../../../H-i686-mingw32/nios2-elf/lib/mno-hw-mul\libc.a(lib_a-printf.o)
 .debug_info    0x00002580      0xab7 e:/softwares/quartus2/nios2eds/bin/gnu/h-i686-mingw32/bin/../lib/gcc/nios2-elf/4.7.3/../../../../../H-i686-mingw32/nios2-elf/lib/mno-hw-mul\libc.a(lib_a-puts.o)
 .debug_info    0x00003037       0xdf e:/softwares/quartus2/nios2eds/bin/gnu/h-i686-mingw32/bin/../lib/gcc/nios2-elf/4.7.3/../../../../../H-i686-mingw32/nios2-elf/lib/mno-hw-mul\libc.a(lib_a-strlen.o)
 .debug_info    0x00003116     0x195a e:/softwares/quartus2/nios2eds/bin/gnu/h-i686-mingw32/bin/../lib/gcc/nios2-elf/4.7.3/../../../../../H-i686-mingw32/nios2-elf/lib/mno-hw-mul\libc.a(lib_a-vfprintf.o)
 .debug_info    0x00004a70      0x9d4 e:/softwares/quartus2/nios2eds/bin/gnu/h-i686-mingw32/bin/../lib/gcc/nios2-elf/4.7.3/../../../../../H-i686-mingw32/nios2-elf/lib/mno-hw-mul\libc.a(lib_a-wsetup.o)
 .debug_info    0x00005444      0xa07 e:/softwares/quartus2/nios2eds/bin/gnu/h-i686-mingw32/bin/../lib/gcc/nios2-elf/4.7.3/../../../../../H-i686-mingw32/nios2-elf/lib/mno-hw-mul\libc.a(lib_a-__call_atexit.o)
 .debug_info    0x00005e4b     0x1409 e:/softwares/quartus2/nios2eds/bin/gnu/h-i686-mingw32/bin/../lib/gcc/nios2-elf/4.7.3/../../../../../H-i686-mingw32/nios2-elf/lib/mno-hw-mul\libc.a(lib_a-dtoa.o)
 .debug_info    0x00007254      0xad0 e:/softwares/quartus2/nios2eds/bin/gnu/h-i686-mingw32/bin/../lib/gcc/nios2-elf/4.7.3/../../../../../H-i686-mingw32/nios2-elf/lib/mno-hw-mul\libc.a(lib_a-fflush.o)
 .debug_info    0x00007d24      0xd6e e:/softwares/quartus2/nios2eds/bin/gnu/h-i686-mingw32/bin/../lib/gcc/nios2-elf/4.7.3/../../../../../H-i686-mingw32/nios2-elf/lib/mno-hw-mul\libc.a(lib_a-findfp.o)
 .debug_info    0x00008a92      0xcf9 e:/softwares/quartus2/nios2eds/bin/gnu/h-i686-mingw32/bin/../lib/gcc/nios2-elf/4.7.3/../../../../../H-i686-mingw32/nios2-elf/lib/mno-hw-mul\libc.a(lib_a-freer.o)
 .debug_info    0x0000978b      0xd05 e:/softwares/quartus2/nios2eds/bin/gnu/h-i686-mingw32/bin/../lib/gcc/nios2-elf/4.7.3/../../../../../H-i686-mingw32/nios2-elf/lib/mno-hw-mul\libc.a(lib_a-fvwrite.o)
 .debug_info    0x0000a490      0xb72 e:/softwares/quartus2/nios2eds/bin/gnu/h-i686-mingw32/bin/../lib/gcc/nios2-elf/4.7.3/../../../../../H-i686-mingw32/nios2-elf/lib/mno-hw-mul\libc.a(lib_a-fwalk.o)
 .debug_info    0x0000b002      0xc10 e:/softwares/quartus2/nios2eds/bin/gnu/h-i686-mingw32/bin/../lib/gcc/nios2-elf/4.7.3/../../../../../H-i686-mingw32/nios2-elf/lib/mno-hw-mul\libc.a(lib_a-locale.o)
 .debug_info    0x0000bc12      0xbc2 e:/softwares/quartus2/nios2eds/bin/gnu/h-i686-mingw32/bin/../lib/gcc/nios2-elf/4.7.3/../../../../../H-i686-mingw32/nios2-elf/lib/mno-hw-mul\libc.a(lib_a-makebuf.o)
 .debug_info    0x0000c7d4      0xe44 e:/softwares/quartus2/nios2eds/bin/gnu/h-i686-mingw32/bin/../lib/gcc/nios2-elf/4.7.3/../../../../../H-i686-mingw32/nios2-elf/lib/mno-hw-mul\libc.a(lib_a-mallocr.o)
 .debug_info    0x0000d618      0x13e e:/softwares/quartus2/nios2eds/bin/gnu/h-i686-mingw32/bin/../lib/gcc/nios2-elf/4.7.3/../../../../../H-i686-mingw32/nios2-elf/lib/mno-hw-mul\libc.a(lib_a-memchr.o)
 .debug_info    0x0000d756      0x10f e:/softwares/quartus2/nios2eds/bin/gnu/h-i686-mingw32/bin/../lib/gcc/nios2-elf/4.7.3/../../../../../H-i686-mingw32/nios2-elf/lib/mno-hw-mul\libc.a(lib_a-memcpy.o)
 .debug_info    0x0000d865      0x147 e:/softwares/quartus2/nios2eds/bin/gnu/h-i686-mingw32/bin/../lib/gcc/nios2-elf/4.7.3/../../../../../H-i686-mingw32/nios2-elf/lib/mno-hw-mul\libc.a(lib_a-memmove.o)
 .debug_info    0x0000d9ac      0x117 e:/softwares/quartus2/nios2eds/bin/gnu/h-i686-mingw32/bin/../lib/gcc/nios2-elf/4.7.3/../../../../../H-i686-mingw32/nios2-elf/lib/mno-hw-mul\libc.a(lib_a-memset.o)
 .debug_info    0x0000dac3     0x1734 e:/softwares/quartus2/nios2eds/bin/gnu/h-i686-mingw32/bin/../lib/gcc/nios2-elf/4.7.3/../../../../../H-i686-mingw32/nios2-elf/lib/mno-hw-mul\libc.a(lib_a-mprec.o)
 .debug_info    0x0000f1f7      0xd8e e:/softwares/quartus2/nios2eds/bin/gnu/h-i686-mingw32/bin/../lib/gcc/nios2-elf/4.7.3/../../../../../H-i686-mingw32/nios2-elf/lib/mno-hw-mul\libc.a(lib_a-reallocr.o)
 .debug_info    0x0000ff85       0xe8 e:/softwares/quartus2/nios2eds/bin/gnu/h-i686-mingw32/bin/../lib/gcc/nios2-elf/4.7.3/../../../../../H-i686-mingw32/nios2-elf/lib/mno-hw-mul\libc.a(lib_a-s_isinfd.o)
 .debug_info    0x0001006d       0xe8 e:/softwares/quartus2/nios2eds/bin/gnu/h-i686-mingw32/bin/../lib/gcc/nios2-elf/4.7.3/../../../../../H-i686-mingw32/nios2-elf/lib/mno-hw-mul\libc.a(lib_a-s_isnand.o)
 .debug_info    0x00010155      0x9a3 e:/softwares/quartus2/nios2eds/bin/gnu/h-i686-mingw32/bin/../lib/gcc/nios2-elf/4.7.3/../../../../../H-i686-mingw32/nios2-elf/lib/mno-hw-mul\libc.a(lib_a-sbrkr.o)
 .debug_info    0x00010af8      0xbfd e:/softwares/quartus2/nios2eds/bin/gnu/h-i686-mingw32/bin/../lib/gcc/nios2-elf/4.7.3/../../../../../H-i686-mingw32/nios2-elf/lib/mno-hw-mul\libc.a(lib_a-stdio.o)
 .debug_info    0x000116f5       0xe1 e:/softwares/quartus2/nios2eds/bin/gnu/h-i686-mingw32/bin/../lib/gcc/nios2-elf/4.7.3/../../../../../H-i686-mingw32/nios2-elf/lib/mno-hw-mul\libc.a(lib_a-strcmp.o)
 .debug_info    0x000117d6      0x9d2 e:/softwares/quartus2/nios2eds/bin/gnu/h-i686-mingw32/bin/../lib/gcc/nios2-elf/4.7.3/../../../../../H-i686-mingw32/nios2-elf/lib/mno-hw-mul\libc.a(lib_a-writer.o)
 .debug_info    0x000121a8      0xa8b e:/softwares/quartus2/nios2eds/bin/gnu/h-i686-mingw32/bin/../lib/gcc/nios2-elf/4.7.3/../../../../../H-i686-mingw32/nios2-elf/lib/mno-hw-mul\libc.a(lib_a-callocr.o)
 .debug_info    0x00012c33      0x97f e:/softwares/quartus2/nios2eds/bin/gnu/h-i686-mingw32/bin/../lib/gcc/nios2-elf/4.7.3/../../../../../H-i686-mingw32/nios2-elf/lib/mno-hw-mul\libc.a(lib_a-closer.o)
 .debug_info    0x000135b2      0xa97 e:/softwares/quartus2/nios2eds/bin/gnu/h-i686-mingw32/bin/../lib/gcc/nios2-elf/4.7.3/../../../../../H-i686-mingw32/nios2-elf/lib/mno-hw-mul\libc.a(lib_a-fclose.o)
 .debug_info    0x00014049      0xb2f e:/softwares/quartus2/nios2eds/bin/gnu/h-i686-mingw32/bin/../lib/gcc/nios2-elf/4.7.3/../../../../../H-i686-mingw32/nios2-elf/lib/mno-hw-mul\libc.a(lib_a-fstatr.o)
 .debug_info    0x00014b78       0x84 e:/softwares/quartus2/nios2eds/bin/gnu/h-i686-mingw32/bin/../lib/gcc/nios2-elf/4.7.3/../../../../../H-i686-mingw32/nios2-elf/lib/mno-hw-mul\libc.a(lib_a-int_errno.o)
 .debug_info    0x00014bfc      0x97f e:/softwares/quartus2/nios2eds/bin/gnu/h-i686-mingw32/bin/../lib/gcc/nios2-elf/4.7.3/../../../../../H-i686-mingw32/nios2-elf/lib/mno-hw-mul\libc.a(lib_a-isattyr.o)
 .debug_info    0x0001557b      0x9cb e:/softwares/quartus2/nios2eds/bin/gnu/h-i686-mingw32/bin/../lib/gcc/nios2-elf/4.7.3/../../../../../H-i686-mingw32/nios2-elf/lib/mno-hw-mul\libc.a(lib_a-lseekr.o)
 .debug_info    0x00015f46      0x9cb e:/softwares/quartus2/nios2eds/bin/gnu/h-i686-mingw32/bin/../lib/gcc/nios2-elf/4.7.3/../../../../../H-i686-mingw32/nios2-elf/lib/mno-hw-mul\libc.a(lib_a-readr.o)
 .debug_info    0x00016911      0x71c e:/softwares/quartus2/nios2eds/bin/gnu/h-i686-mingw32/bin/../lib/gcc/nios2-elf/4.7.3/mno-hw-mul\libgcc.a(_udivdi3.o)
 .debug_info    0x0001702d      0x773 e:/softwares/quartus2/nios2eds/bin/gnu/h-i686-mingw32/bin/../lib/gcc/nios2-elf/4.7.3/mno-hw-mul\libgcc.a(_umoddi3.o)
 .debug_info    0x000177a0      0x588 e:/softwares/quartus2/nios2eds/bin/gnu/h-i686-mingw32/bin/../lib/gcc/nios2-elf/4.7.3/mno-hw-mul\libgcc.a(_addsub_df.o)
 .debug_info    0x00017d28      0x519 e:/softwares/quartus2/nios2eds/bin/gnu/h-i686-mingw32/bin/../lib/gcc/nios2-elf/4.7.3/mno-hw-mul\libgcc.a(_mul_df.o)
 .debug_info    0x00018241      0x443 e:/softwares/quartus2/nios2eds/bin/gnu/h-i686-mingw32/bin/../lib/gcc/nios2-elf/4.7.3/mno-hw-mul\libgcc.a(_div_df.o)
 .debug_info    0x00018684      0x320 e:/softwares/quartus2/nios2eds/bin/gnu/h-i686-mingw32/bin/../lib/gcc/nios2-elf/4.7.3/mno-hw-mul\libgcc.a(_eq_df.o)
 .debug_info    0x000189a4      0x320 e:/softwares/quartus2/nios2eds/bin/gnu/h-i686-mingw32/bin/../lib/gcc/nios2-elf/4.7.3/mno-hw-mul\libgcc.a(_ne_df.o)
 .debug_info    0x00018cc4      0x320 e:/softwares/quartus2/nios2eds/bin/gnu/h-i686-mingw32/bin/../lib/gcc/nios2-elf/4.7.3/mno-hw-mul\libgcc.a(_gt_df.o)
 .debug_info    0x00018fe4      0x320 e:/softwares/quartus2/nios2eds/bin/gnu/h-i686-mingw32/bin/../lib/gcc/nios2-elf/4.7.3/mno-hw-mul\libgcc.a(_ge_df.o)
 .debug_info    0x00019304      0x320 e:/softwares/quartus2/nios2eds/bin/gnu/h-i686-mingw32/bin/../lib/gcc/nios2-elf/4.7.3/mno-hw-mul\libgcc.a(_lt_df.o)
 .debug_info    0x00019624      0x261 e:/softwares/quartus2/nios2eds/bin/gnu/h-i686-mingw32/bin/../lib/gcc/nios2-elf/4.7.3/mno-hw-mul\libgcc.a(_si_to_df.o)
 .debug_info    0x00019885      0x30b e:/softwares/quartus2/nios2eds/bin/gnu/h-i686-mingw32/bin/../lib/gcc/nios2-elf/4.7.3/mno-hw-mul\libgcc.a(_df_to_si.o)
 .debug_info    0x00019b90      0x155 e:/softwares/quartus2/nios2eds/bin/gnu/h-i686-mingw32/bin/../lib/gcc/nios2-elf/4.7.3/mno-hw-mul\libgcc.a(_thenan_df.o)
 .debug_info    0x00019ce5      0x284 e:/softwares/quartus2/nios2eds/bin/gnu/h-i686-mingw32/bin/../lib/gcc/nios2-elf/4.7.3/mno-hw-mul\libgcc.a(_usi_to_df.o)
 .debug_info    0x00019f69      0x1eb e:/softwares/quartus2/nios2eds/bin/gnu/h-i686-mingw32/bin/../lib/gcc/nios2-elf/4.7.3/mno-hw-mul\libgcc.a(_muldi3.o)
 .debug_info    0x0001a154       0xac e:/softwares/quartus2/nios2eds/bin/gnu/h-i686-mingw32/bin/../lib/gcc/nios2-elf/4.7.3/mno-hw-mul\libgcc.a(_clz.o)
 .debug_info    0x0001a200      0x123 e:/softwares/quartus2/nios2eds/bin/gnu/h-i686-mingw32/bin/../lib/gcc/nios2-elf/4.7.3/mno-hw-mul\libgcc.a(_clzsi2.o)
 .debug_info    0x0001a323      0x2f7 e:/softwares/quartus2/nios2eds/bin/gnu/h-i686-mingw32/bin/../lib/gcc/nios2-elf/4.7.3/mno-hw-mul\libgcc.a(_pack_df.o)
 .debug_info    0x0001a61a      0x265 e:/softwares/quartus2/nios2eds/bin/gnu/h-i686-mingw32/bin/../lib/gcc/nios2-elf/4.7.3/mno-hw-mul\libgcc.a(_unpack_df.o)
 .debug_info    0x0001a87f      0x226 e:/softwares/quartus2/nios2eds/bin/gnu/h-i686-mingw32/bin/../lib/gcc/nios2-elf/4.7.3/mno-hw-mul\libgcc.a(_fpcmp_parts_df.o)
 .debug_info    0x0001aaa5      0x185 e:/softwares/quartus2/nios2eds/bin/gnu/h-i686-mingw32/bin/../lib/gcc/nios2-elf/4.7.3/mno-hw-mul\libgcc.a(_lshrdi3.o)
 .debug_info    0x0001ac2a      0x185 e:/softwares/quartus2/nios2eds/bin/gnu/h-i686-mingw32/bin/../lib/gcc/nios2-elf/4.7.3/mno-hw-mul\libgcc.a(_ashldi3.o)
 .debug_info    0x0001adaf      0x350 ../lab_crc_bsp/\libhal_bsp.a(alt_close.o)
 .debug_info    0x0001b0ff      0x4e3 ../lab_crc_bsp/\libhal_bsp.a(alt_dev.o)
 .debug_info    0x0001b5e2       0xa3 ../lab_crc_bsp/\libhal_bsp.a(alt_errno.o)
 .debug_info    0x0001b685       0xec ../lab_crc_bsp/\libhal_bsp.a(alt_exit.o)
 .debug_info    0x0001b771      0x4d8 ../lab_crc_bsp/\libhal_bsp.a(alt_fstat.o)
 .debug_info    0x0001bc49      0x4db ../lab_crc_bsp/\libhal_bsp.a(alt_isatty.o)
 .debug_info    0x0001c124      0x135 ../lab_crc_bsp/\libhal_bsp.a(alt_load.o)
 .debug_info    0x0001c259      0x381 ../lab_crc_bsp/\libhal_bsp.a(alt_lseek.o)
 .debug_info    0x0001c5da      0x139 ../lab_crc_bsp/\libhal_bsp.a(alt_main.o)
 .debug_info    0x0001c713      0x950 ../lab_crc_bsp/\libhal_bsp.a(alt_malloc_lock.o)
 .debug_info    0x0001d063      0x500 ../lab_crc_bsp/\libhal_bsp.a(alt_read.o)
 .debug_info    0x0001d563      0x2dd ../lab_crc_bsp/\libhal_bsp.a(alt_release_fd.o)
 .debug_info    0x0001d840      0x1b2 ../lab_crc_bsp/\libhal_bsp.a(alt_sbrk.o)
 .debug_info    0x0001d9f2      0x507 ../lab_crc_bsp/\libhal_bsp.a(alt_write.o)
 .debug_info    0x0001def9      0x539 ../lab_crc_bsp/\libhal_bsp.a(alt_sys_init.o)
 .debug_info    0x0001e432      0x58a ../lab_crc_bsp/\libhal_bsp.a(altera_avalon_jtag_uart_fd.o)
 .debug_info    0x0001e9bc      0x3d8 ../lab_crc_bsp/\libhal_bsp.a(altera_avalon_jtag_uart_init.o)
 .debug_info    0x0001ed94      0x2a9 ../lab_crc_bsp/\libhal_bsp.a(altera_avalon_jtag_uart_ioctl.o)
 .debug_info    0x0001f03d      0x371 ../lab_crc_bsp/\libhal_bsp.a(altera_avalon_jtag_uart_read.o)
 .debug_info    0x0001f3ae      0x36c ../lab_crc_bsp/\libhal_bsp.a(altera_avalon_jtag_uart_write.o)
 .debug_info    0x0001f71a      0x235 ../lab_crc_bsp/\libhal_bsp.a(altera_avalon_timer_sc.o)
 .debug_info    0x0001f94f      0x18d ../lab_crc_bsp/\libhal_bsp.a(altera_avalon_timer_ts.o)
 .debug_info    0x0001fadc       0xea ../lab_crc_bsp/\libhal_bsp.a(altera_avalon_timer_vars.o)
 .debug_info    0x0001fbc6      0x2e4 ../lab_crc_bsp/\libhal_bsp.a(alt_alarm_start.o)
 .debug_info    0x0001feaa       0x90 ../lab_crc_bsp/\libhal_bsp.a(alt_dcache_flush_all.o)
 .debug_info    0x0001ff3a      0x1b9 ../lab_crc_bsp/\libhal_bsp.a(alt_dev_llist_insert.o)
 .debug_info    0x000200f3       0x8d ../lab_crc_bsp/\libhal_bsp.a(alt_do_ctors.o)
 .debug_info    0x00020180       0x8d ../lab_crc_bsp/\libhal_bsp.a(alt_do_dtors.o)
 .debug_info    0x0002020d       0x90 ../lab_crc_bsp/\libhal_bsp.a(alt_icache_flush_all.o)
 .debug_info    0x0002029d      0x364 ../lab_crc_bsp/\libhal_bsp.a(alt_iic.o)
 .debug_info    0x00020601      0x1f6 ../lab_crc_bsp/\libhal_bsp.a(alt_iic_isr_register.o)
 .debug_info    0x000207f7      0x4f0 ../lab_crc_bsp/\libhal_bsp.a(alt_io_redirect.o)
 .debug_info    0x00020ce7       0xc9 ../lab_crc_bsp/\libhal_bsp.a(alt_irq_entry.o)
 .debug_info    0x00020db0      0x190 ../lab_crc_bsp/\libhal_bsp.a(alt_irq_handler.o)
 .debug_info    0x00020f40       0x8a ../lab_crc_bsp/\libhal_bsp.a(alt_irq_vars.o)
 .debug_info    0x00020fca      0x3f0 ../lab_crc_bsp/\libhal_bsp.a(alt_open.o)
 .debug_info    0x000213ba      0x2b1 ../lab_crc_bsp/\libhal_bsp.a(alt_tick.o)
 .debug_info    0x0002166b       0x90 ../lab_crc_bsp/\libhal_bsp.a(altera_nios2_qsys_irq.o)
 .debug_info    0x000216fb       0xcf ../lab_crc_bsp/\libhal_bsp.a(alt_exception_entry.o)
 .debug_info    0x000217ca      0x30d ../lab_crc_bsp/\libhal_bsp.a(alt_find_dev.o)
 .debug_info    0x00021ad7      0x30c ../lab_crc_bsp/\libhal_bsp.a(alt_find_file.o)
 .debug_info    0x00021de3      0x339 ../lab_crc_bsp/\libhal_bsp.a(alt_get_fd.o)
 .debug_info    0x0002211c      0x1e6 e:/softwares/quartus2/nios2eds/bin/gnu/h-i686-mingw32/bin/../lib/gcc/nios2-elf/4.7.3/../../../../../H-i686-mingw32/nios2-elf/lib/mno-hw-mul\libc.a(lib_a-atexit.o)
 .debug_info    0x00022302      0x117 e:/softwares/quartus2/nios2eds/bin/gnu/h-i686-mingw32/bin/../lib/gcc/nios2-elf/4.7.3/../../../../../H-i686-mingw32/nios2-elf/lib/mno-hw-mul\libc.a(lib_a-memcmp.o)
 .debug_info    0x00022419      0x9f9 e:/softwares/quartus2/nios2eds/bin/gnu/h-i686-mingw32/bin/../lib/gcc/nios2-elf/4.7.3/../../../../../H-i686-mingw32/nios2-elf/lib/mno-hw-mul\libc.a(lib_a-__atexit.o)

.debug_abbrev   0x00000000     0x90fa
 *(.debug_abbrev)
 .debug_abbrev  0x00000000       0x12 ../lab_crc_bsp//obj/HAL/src/crt0.o
 .debug_abbrev  0x00000012       0x69 obj/default/ci_crc.o
 .debug_abbrev  0x0000007b       0xe7 obj/default/crc.o
 .debug_abbrev  0x00000162       0xbb obj/default/crc_main.o
 .debug_abbrev  0x0000021d      0x112 e:/softwares/quartus2/nios2eds/bin/gnu/h-i686-mingw32/bin/../lib/gcc/nios2-elf/4.7.3/mno-hw-mul\libgcc.a(lib2-divmod.o)
 .debug_abbrev  0x0000032f       0x6f e:/softwares/quartus2/nios2eds/bin/gnu/h-i686-mingw32/bin/../lib/gcc/nios2-elf/4.7.3/mno-hw-mul\libgcc.a(lib2-mul.o)
 .debug_abbrev  0x0000039e      0x1c8 e:/softwares/quartus2/nios2eds/bin/gnu/h-i686-mingw32/bin/../lib/gcc/nios2-elf/4.7.3/../../../../../H-i686-mingw32/nios2-elf/lib/mno-hw-mul\libc.a(lib_a-exit.o)
 .debug_abbrev  0x00000566      0x162 e:/softwares/quartus2/nios2eds/bin/gnu/h-i686-mingw32/bin/../lib/gcc/nios2-elf/4.7.3/../../../../../H-i686-mingw32/nios2-elf/lib/mno-hw-mul\libc.a(lib_a-impure.o)
 .debug_abbrev  0x000006c8      0x209 e:/softwares/quartus2/nios2eds/bin/gnu/h-i686-mingw32/bin/../lib/gcc/nios2-elf/4.7.3/../../../../../H-i686-mingw32/nios2-elf/lib/mno-hw-mul\libc.a(lib_a-printf.o)
 .debug_abbrev  0x000008d1      0x208 e:/softwares/quartus2/nios2eds/bin/gnu/h-i686-mingw32/bin/../lib/gcc/nios2-elf/4.7.3/../../../../../H-i686-mingw32/nios2-elf/lib/mno-hw-mul\libc.a(lib_a-puts.o)
 .debug_abbrev  0x00000ad9       0x90 e:/softwares/quartus2/nios2eds/bin/gnu/h-i686-mingw32/bin/../lib/gcc/nios2-elf/4.7.3/../../../../../H-i686-mingw32/nios2-elf/lib/mno-hw-mul\libc.a(lib_a-strlen.o)
 .debug_abbrev  0x00000b69      0x3d9 e:/softwares/quartus2/nios2eds/bin/gnu/h-i686-mingw32/bin/../lib/gcc/nios2-elf/4.7.3/../../../../../H-i686-mingw32/nios2-elf/lib/mno-hw-mul\libc.a(lib_a-vfprintf.o)
 .debug_abbrev  0x00000f42      0x1d5 e:/softwares/quartus2/nios2eds/bin/gnu/h-i686-mingw32/bin/../lib/gcc/nios2-elf/4.7.3/../../../../../H-i686-mingw32/nios2-elf/lib/mno-hw-mul\libc.a(lib_a-wsetup.o)
 .debug_abbrev  0x00001117      0x203 e:/softwares/quartus2/nios2eds/bin/gnu/h-i686-mingw32/bin/../lib/gcc/nios2-elf/4.7.3/../../../../../H-i686-mingw32/nios2-elf/lib/mno-hw-mul\libc.a(lib_a-__call_atexit.o)
 .debug_abbrev  0x0000131a      0x2ab e:/softwares/quartus2/nios2eds/bin/gnu/h-i686-mingw32/bin/../lib/gcc/nios2-elf/4.7.3/../../../../../H-i686-mingw32/nios2-elf/lib/mno-hw-mul\libc.a(lib_a-dtoa.o)
 .debug_abbrev  0x000015c5      0x259 e:/softwares/quartus2/nios2eds/bin/gnu/h-i686-mingw32/bin/../lib/gcc/nios2-elf/4.7.3/../../../../../H-i686-mingw32/nios2-elf/lib/mno-hw-mul\libc.a(lib_a-fflush.o)
 .debug_abbrev  0x0000181e      0x333 e:/softwares/quartus2/nios2eds/bin/gnu/h-i686-mingw32/bin/../lib/gcc/nios2-elf/4.7.3/../../../../../H-i686-mingw32/nios2-elf/lib/mno-hw-mul\libc.a(lib_a-findfp.o)
 .debug_abbrev  0x00001b51      0x25d e:/softwares/quartus2/nios2eds/bin/gnu/h-i686-mingw32/bin/../lib/gcc/nios2-elf/4.7.3/../../../../../H-i686-mingw32/nios2-elf/lib/mno-hw-mul\libc.a(lib_a-freer.o)
 .debug_abbrev  0x00001dae      0x234 e:/softwares/quartus2/nios2eds/bin/gnu/h-i686-mingw32/bin/../lib/gcc/nios2-elf/4.7.3/../../../../../H-i686-mingw32/nios2-elf/lib/mno-hw-mul\libc.a(lib_a-fvwrite.o)
 .debug_abbrev  0x00001fe2      0x224 e:/softwares/quartus2/nios2eds/bin/gnu/h-i686-mingw32/bin/../lib/gcc/nios2-elf/4.7.3/../../../../../H-i686-mingw32/nios2-elf/lib/mno-hw-mul\libc.a(lib_a-fwalk.o)
 .debug_abbrev  0x00002206      0x29f e:/softwares/quartus2/nios2eds/bin/gnu/h-i686-mingw32/bin/../lib/gcc/nios2-elf/4.7.3/../../../../../H-i686-mingw32/nios2-elf/lib/mno-hw-mul\libc.a(lib_a-locale.o)
 .debug_abbrev  0x000024a5      0x1e8 e:/softwares/quartus2/nios2eds/bin/gnu/h-i686-mingw32/bin/../lib/gcc/nios2-elf/4.7.3/../../../../../H-i686-mingw32/nios2-elf/lib/mno-hw-mul\libc.a(lib_a-makebuf.o)
 .debug_abbrev  0x0000268d      0x284 e:/softwares/quartus2/nios2eds/bin/gnu/h-i686-mingw32/bin/../lib/gcc/nios2-elf/4.7.3/../../../../../H-i686-mingw32/nios2-elf/lib/mno-hw-mul\libc.a(lib_a-mallocr.o)
 .debug_abbrev  0x00002911       0xab e:/softwares/quartus2/nios2eds/bin/gnu/h-i686-mingw32/bin/../lib/gcc/nios2-elf/4.7.3/../../../../../H-i686-mingw32/nios2-elf/lib/mno-hw-mul\libc.a(lib_a-memchr.o)
 .debug_abbrev  0x000029bc       0x9c e:/softwares/quartus2/nios2eds/bin/gnu/h-i686-mingw32/bin/../lib/gcc/nios2-elf/4.7.3/../../../../../H-i686-mingw32/nios2-elf/lib/mno-hw-mul\libc.a(lib_a-memcpy.o)
 .debug_abbrev  0x00002a58       0x9c e:/softwares/quartus2/nios2eds/bin/gnu/h-i686-mingw32/bin/../lib/gcc/nios2-elf/4.7.3/../../../../../H-i686-mingw32/nios2-elf/lib/mno-hw-mul\libc.a(lib_a-memmove.o)
 .debug_abbrev  0x00002af4       0xac e:/softwares/quartus2/nios2eds/bin/gnu/h-i686-mingw32/bin/../lib/gcc/nios2-elf/4.7.3/../../../../../H-i686-mingw32/nios2-elf/lib/mno-hw-mul\libc.a(lib_a-memset.o)
 .debug_abbrev  0x00002ba0      0x394 e:/softwares/quartus2/nios2eds/bin/gnu/h-i686-mingw32/bin/../lib/gcc/nios2-elf/4.7.3/../../../../../H-i686-mingw32/nios2-elf/lib/mno-hw-mul\libc.a(lib_a-mprec.o)
 .debug_abbrev  0x00002f34      0x242 e:/softwares/quartus2/nios2eds/bin/gnu/h-i686-mingw32/bin/../lib/gcc/nios2-elf/4.7.3/../../../../../H-i686-mingw32/nios2-elf/lib/mno-hw-mul\libc.a(lib_a-reallocr.o)
 .debug_abbrev  0x00003176       0x6f e:/softwares/quartus2/nios2eds/bin/gnu/h-i686-mingw32/bin/../lib/gcc/nios2-elf/4.7.3/../../../../../H-i686-mingw32/nios2-elf/lib/mno-hw-mul\libc.a(lib_a-s_isinfd.o)
 .debug_abbrev  0x000031e5       0x6f e:/softwares/quartus2/nios2eds/bin/gnu/h-i686-mingw32/bin/../lib/gcc/nios2-elf/4.7.3/../../../../../H-i686-mingw32/nios2-elf/lib/mno-hw-mul\libc.a(lib_a-s_isnand.o)
 .debug_abbrev  0x00003254      0x1df e:/softwares/quartus2/nios2eds/bin/gnu/h-i686-mingw32/bin/../lib/gcc/nios2-elf/4.7.3/../../../../../H-i686-mingw32/nios2-elf/lib/mno-hw-mul\libc.a(lib_a-sbrkr.o)
 .debug_abbrev  0x00003433      0x226 e:/softwares/quartus2/nios2eds/bin/gnu/h-i686-mingw32/bin/../lib/gcc/nios2-elf/4.7.3/../../../../../H-i686-mingw32/nios2-elf/lib/mno-hw-mul\libc.a(lib_a-stdio.o)
 .debug_abbrev  0x00003659       0x74 e:/softwares/quartus2/nios2eds/bin/gnu/h-i686-mingw32/bin/../lib/gcc/nios2-elf/4.7.3/../../../../../H-i686-mingw32/nios2-elf/lib/mno-hw-mul\libc.a(lib_a-strcmp.o)
 .debug_abbrev  0x000036cd      0x1c0 e:/softwares/quartus2/nios2eds/bin/gnu/h-i686-mingw32/bin/../lib/gcc/nios2-elf/4.7.3/../../../../../H-i686-mingw32/nios2-elf/lib/mno-hw-mul\libc.a(lib_a-writer.o)
 .debug_abbrev  0x0000388d      0x202 e:/softwares/quartus2/nios2eds/bin/gnu/h-i686-mingw32/bin/../lib/gcc/nios2-elf/4.7.3/../../../../../H-i686-mingw32/nios2-elf/lib/mno-hw-mul\libc.a(lib_a-callocr.o)
 .debug_abbrev  0x00003a8f      0x1bb e:/softwares/quartus2/nios2eds/bin/gnu/h-i686-mingw32/bin/../lib/gcc/nios2-elf/4.7.3/../../../../../H-i686-mingw32/nios2-elf/lib/mno-hw-mul\libc.a(lib_a-closer.o)
 .debug_abbrev  0x00003c4a      0x24e e:/softwares/quartus2/nios2eds/bin/gnu/h-i686-mingw32/bin/../lib/gcc/nios2-elf/4.7.3/../../../../../H-i686-mingw32/nios2-elf/lib/mno-hw-mul\libc.a(lib_a-fclose.o)
 .debug_abbrev  0x00003e98      0x1ca e:/softwares/quartus2/nios2eds/bin/gnu/h-i686-mingw32/bin/../lib/gcc/nios2-elf/4.7.3/../../../../../H-i686-mingw32/nios2-elf/lib/mno-hw-mul\libc.a(lib_a-fstatr.o)
 .debug_abbrev  0x00004062       0x37 e:/softwares/quartus2/nios2eds/bin/gnu/h-i686-mingw32/bin/../lib/gcc/nios2-elf/4.7.3/../../../../../H-i686-mingw32/nios2-elf/lib/mno-hw-mul\libc.a(lib_a-int_errno.o)
 .debug_abbrev  0x00004099      0x1bb e:/softwares/quartus2/nios2eds/bin/gnu/h-i686-mingw32/bin/../lib/gcc/nios2-elf/4.7.3/../../../../../H-i686-mingw32/nios2-elf/lib/mno-hw-mul\libc.a(lib_a-isattyr.o)
 .debug_abbrev  0x00004254      0x1ca e:/softwares/quartus2/nios2eds/bin/gnu/h-i686-mingw32/bin/../lib/gcc/nios2-elf/4.7.3/../../../../../H-i686-mingw32/nios2-elf/lib/mno-hw-mul\libc.a(lib_a-lseekr.o)
 .debug_abbrev  0x0000441e      0x1bb e:/softwares/quartus2/nios2eds/bin/gnu/h-i686-mingw32/bin/../lib/gcc/nios2-elf/4.7.3/../../../../../H-i686-mingw32/nios2-elf/lib/mno-hw-mul\libc.a(lib_a-readr.o)
 .debug_abbrev  0x000045d9      0x170 e:/softwares/quartus2/nios2eds/bin/gnu/h-i686-mingw32/bin/../lib/gcc/nios2-elf/4.7.3/mno-hw-mul\libgcc.a(_udivdi3.o)
 .debug_abbrev  0x00004749      0x19c e:/softwares/quartus2/nios2eds/bin/gnu/h-i686-mingw32/bin/../lib/gcc/nios2-elf/4.7.3/mno-hw-mul\libgcc.a(_umoddi3.o)
 .debug_abbrev  0x000048e5      0x22d e:/softwares/quartus2/nios2eds/bin/gnu/h-i686-mingw32/bin/../lib/gcc/nios2-elf/4.7.3/mno-hw-mul\libgcc.a(_addsub_df.o)
 .debug_abbrev  0x00004b12      0x240 e:/softwares/quartus2/nios2eds/bin/gnu/h-i686-mingw32/bin/../lib/gcc/nios2-elf/4.7.3/mno-hw-mul\libgcc.a(_mul_df.o)
 .debug_abbrev  0x00004d52      0x245 e:/softwares/quartus2/nios2eds/bin/gnu/h-i686-mingw32/bin/../lib/gcc/nios2-elf/4.7.3/mno-hw-mul\libgcc.a(_div_df.o)
 .debug_abbrev  0x00004f97      0x1a5 e:/softwares/quartus2/nios2eds/bin/gnu/h-i686-mingw32/bin/../lib/gcc/nios2-elf/4.7.3/mno-hw-mul\libgcc.a(_eq_df.o)
 .debug_abbrev  0x0000513c      0x1a5 e:/softwares/quartus2/nios2eds/bin/gnu/h-i686-mingw32/bin/../lib/gcc/nios2-elf/4.7.3/mno-hw-mul\libgcc.a(_ne_df.o)
 .debug_abbrev  0x000052e1      0x1a5 e:/softwares/quartus2/nios2eds/bin/gnu/h-i686-mingw32/bin/../lib/gcc/nios2-elf/4.7.3/mno-hw-mul\libgcc.a(_gt_df.o)
 .debug_abbrev  0x00005486      0x1a5 e:/softwares/quartus2/nios2eds/bin/gnu/h-i686-mingw32/bin/../lib/gcc/nios2-elf/4.7.3/mno-hw-mul\libgcc.a(_ge_df.o)
 .debug_abbrev  0x0000562b      0x1a5 e:/softwares/quartus2/nios2eds/bin/gnu/h-i686-mingw32/bin/../lib/gcc/nios2-elf/4.7.3/mno-hw-mul\libgcc.a(_lt_df.o)
 .debug_abbrev  0x000057d0      0x19c e:/softwares/quartus2/nios2eds/bin/gnu/h-i686-mingw32/bin/../lib/gcc/nios2-elf/4.7.3/mno-hw-mul\libgcc.a(_si_to_df.o)
 .debug_abbrev  0x0000596c      0x1ae e:/softwares/quartus2/nios2eds/bin/gnu/h-i686-mingw32/bin/../lib/gcc/nios2-elf/4.7.3/mno-hw-mul\libgcc.a(_df_to_si.o)
 .debug_abbrev  0x00005b1a       0xb6 e:/softwares/quartus2/nios2eds/bin/gnu/h-i686-mingw32/bin/../lib/gcc/nios2-elf/4.7.3/mno-hw-mul\libgcc.a(_thenan_df.o)
 .debug_abbrev  0x00005bd0      0x1bf e:/softwares/quartus2/nios2eds/bin/gnu/h-i686-mingw32/bin/../lib/gcc/nios2-elf/4.7.3/mno-hw-mul\libgcc.a(_usi_to_df.o)
 .debug_abbrev  0x00005d8f       0xe0 e:/softwares/quartus2/nios2eds/bin/gnu/h-i686-mingw32/bin/../lib/gcc/nios2-elf/4.7.3/mno-hw-mul\libgcc.a(_muldi3.o)
 .debug_abbrev  0x00005e6f       0x5d e:/softwares/quartus2/nios2eds/bin/gnu/h-i686-mingw32/bin/../lib/gcc/nios2-elf/4.7.3/mno-hw-mul\libgcc.a(_clz.o)
 .debug_abbrev  0x00005ecc       0xbe e:/softwares/quartus2/nios2eds/bin/gnu/h-i686-mingw32/bin/../lib/gcc/nios2-elf/4.7.3/mno-hw-mul\libgcc.a(_clzsi2.o)
 .debug_abbrev  0x00005f8a      0x1b6 e:/softwares/quartus2/nios2eds/bin/gnu/h-i686-mingw32/bin/../lib/gcc/nios2-elf/4.7.3/mno-hw-mul\libgcc.a(_pack_df.o)
 .debug_abbrev  0x00006140      0x15d e:/softwares/quartus2/nios2eds/bin/gnu/h-i686-mingw32/bin/../lib/gcc/nios2-elf/4.7.3/mno-hw-mul\libgcc.a(_unpack_df.o)
 .debug_abbrev  0x0000629d      0x146 e:/softwares/quartus2/nios2eds/bin/gnu/h-i686-mingw32/bin/../lib/gcc/nios2-elf/4.7.3/mno-hw-mul\libgcc.a(_fpcmp_parts_df.o)
 .debug_abbrev  0x000063e3       0xf1 e:/softwares/quartus2/nios2eds/bin/gnu/h-i686-mingw32/bin/../lib/gcc/nios2-elf/4.7.3/mno-hw-mul\libgcc.a(_lshrdi3.o)
 .debug_abbrev  0x000064d4       0xf1 e:/softwares/quartus2/nios2eds/bin/gnu/h-i686-mingw32/bin/../lib/gcc/nios2-elf/4.7.3/mno-hw-mul\libgcc.a(_ashldi3.o)
 .debug_abbrev  0x000065c5      0x11f ../lab_crc_bsp/\libhal_bsp.a(alt_close.o)
 .debug_abbrev  0x000066e4       0xd9 ../lab_crc_bsp/\libhal_bsp.a(alt_dev.o)
 .debug_abbrev  0x000067bd       0x5a ../lab_crc_bsp/\libhal_bsp.a(alt_errno.o)
 .debug_abbrev  0x00006817       0xa6 ../lab_crc_bsp/\libhal_bsp.a(alt_exit.o)
 .debug_abbrev  0x000068bd      0x11f ../lab_crc_bsp/\libhal_bsp.a(alt_fstat.o)
 .debug_abbrev  0x000069dc      0x11f ../lab_crc_bsp/\libhal_bsp.a(alt_isatty.o)
 .debug_abbrev  0x00006afb       0x9d ../lab_crc_bsp/\libhal_bsp.a(alt_load.o)
 .debug_abbrev  0x00006b98      0x11f ../lab_crc_bsp/\libhal_bsp.a(alt_lseek.o)
 .debug_abbrev  0x00006cb7       0xba ../lab_crc_bsp/\libhal_bsp.a(alt_main.o)
 .debug_abbrev  0x00006d71      0x187 ../lab_crc_bsp/\libhal_bsp.a(alt_malloc_lock.o)
 .debug_abbrev  0x00006ef8      0x12e ../lab_crc_bsp/\libhal_bsp.a(alt_read.o)
 .debug_abbrev  0x00007026       0xde ../lab_crc_bsp/\libhal_bsp.a(alt_release_fd.o)
 .debug_abbrev  0x00007104      0x112 ../lab_crc_bsp/\libhal_bsp.a(alt_sbrk.o)
 .debug_abbrev  0x00007216      0x133 ../lab_crc_bsp/\libhal_bsp.a(alt_write.o)
 .debug_abbrev  0x00007349      0x176 ../lab_crc_bsp/\libhal_bsp.a(alt_sys_init.o)
 .debug_abbrev  0x000074bf      0x118 ../lab_crc_bsp/\libhal_bsp.a(altera_avalon_jtag_uart_fd.o)
 .debug_abbrev  0x000075d7      0x18f ../lab_crc_bsp/\libhal_bsp.a(altera_avalon_jtag_uart_init.o)
 .debug_abbrev  0x00007766      0x102 ../lab_crc_bsp/\libhal_bsp.a(altera_avalon_jtag_uart_ioctl.o)
 .debug_abbrev  0x00007868      0x19b ../lab_crc_bsp/\libhal_bsp.a(altera_avalon_jtag_uart_read.o)
 .debug_abbrev  0x00007a03      0x199 ../lab_crc_bsp/\libhal_bsp.a(altera_avalon_jtag_uart_write.o)
 .debug_abbrev  0x00007b9c      0x155 ../lab_crc_bsp/\libhal_bsp.a(altera_avalon_timer_sc.o)
 .debug_abbrev  0x00007cf1       0xc4 ../lab_crc_bsp/\libhal_bsp.a(altera_avalon_timer_ts.o)
 .debug_abbrev  0x00007db5       0x83 ../lab_crc_bsp/\libhal_bsp.a(altera_avalon_timer_vars.o)
 .debug_abbrev  0x00007e38      0x162 ../lab_crc_bsp/\libhal_bsp.a(alt_alarm_start.o)
 .debug_abbrev  0x00007f9a       0x42 ../lab_crc_bsp/\libhal_bsp.a(alt_dcache_flush_all.o)
 .debug_abbrev  0x00007fdc      0x114 ../lab_crc_bsp/\libhal_bsp.a(alt_dev_llist_insert.o)
 .debug_abbrev  0x000080f0       0x79 ../lab_crc_bsp/\libhal_bsp.a(alt_do_ctors.o)
 .debug_abbrev  0x00008169       0x79 ../lab_crc_bsp/\libhal_bsp.a(alt_do_dtors.o)
 .debug_abbrev  0x000081e2       0x42 ../lab_crc_bsp/\libhal_bsp.a(alt_icache_flush_all.o)
 .debug_abbrev  0x00008224      0x16a ../lab_crc_bsp/\libhal_bsp.a(alt_iic.o)
 .debug_abbrev  0x0000838e      0x169 ../lab_crc_bsp/\libhal_bsp.a(alt_iic_isr_register.o)
 .debug_abbrev  0x000084f7      0x114 ../lab_crc_bsp/\libhal_bsp.a(alt_io_redirect.o)
 .debug_abbrev  0x0000860b       0x12 ../lab_crc_bsp/\libhal_bsp.a(alt_irq_entry.o)
 .debug_abbrev  0x0000861d      0x124 ../lab_crc_bsp/\libhal_bsp.a(alt_irq_handler.o)
 .debug_abbrev  0x00008741       0x40 ../lab_crc_bsp/\libhal_bsp.a(alt_irq_vars.o)
 .debug_abbrev  0x00008781      0x148 ../lab_crc_bsp/\libhal_bsp.a(alt_open.o)
 .debug_abbrev  0x000088c9      0x15a ../lab_crc_bsp/\libhal_bsp.a(alt_tick.o)
 .debug_abbrev  0x00008a23       0x42 ../lab_crc_bsp/\libhal_bsp.a(altera_nios2_qsys_irq.o)
 .debug_abbrev  0x00008a65       0x12 ../lab_crc_bsp/\libhal_bsp.a(alt_exception_entry.o)
 .debug_abbrev  0x00008a77       0xf0 ../lab_crc_bsp/\libhal_bsp.a(alt_find_dev.o)
 .debug_abbrev  0x00008b67       0xf0 ../lab_crc_bsp/\libhal_bsp.a(alt_find_file.o)
 .debug_abbrev  0x00008c57      0x10d ../lab_crc_bsp/\libhal_bsp.a(alt_get_fd.o)
 .debug_abbrev  0x00008d64      0x106 e:/softwares/quartus2/nios2eds/bin/gnu/h-i686-mingw32/bin/../lib/gcc/nios2-elf/4.7.3/../../../../../H-i686-mingw32/nios2-elf/lib/mno-hw-mul\libc.a(lib_a-atexit.o)
 .debug_abbrev  0x00008e6a       0x7f e:/softwares/quartus2/nios2eds/bin/gnu/h-i686-mingw32/bin/../lib/gcc/nios2-elf/4.7.3/../../../../../H-i686-mingw32/nios2-elf/lib/mno-hw-mul\libc.a(lib_a-memcmp.o)
 .debug_abbrev  0x00008ee9      0x211 e:/softwares/quartus2/nios2eds/bin/gnu/h-i686-mingw32/bin/../lib/gcc/nios2-elf/4.7.3/../../../../../H-i686-mingw32/nios2-elf/lib/mno-hw-mul\libc.a(lib_a-__atexit.o)

.debug_line     0x00000000     0xa3ef
 *(.debug_line)
 .debug_line    0x00000000       0x66 ../lab_crc_bsp//obj/HAL/src/crt0.o
 .debug_line    0x00000066       0x5f obj/default/ci_crc.o
 .debug_line    0x000000c5       0xc7 obj/default/crc.o
 .debug_line    0x0000018c      0x15a obj/default/crc_main.o
 .debug_line    0x000002e6       0xd6 e:/softwares/quartus2/nios2eds/bin/gnu/h-i686-mingw32/bin/../lib/gcc/nios2-elf/4.7.3/mno-hw-mul\libgcc.a(lib2-divmod.o)
 .debug_line    0x000003bc       0x80 e:/softwares/quartus2/nios2eds/bin/gnu/h-i686-mingw32/bin/../lib/gcc/nios2-elf/4.7.3/mno-hw-mul\libgcc.a(lib2-mul.o)
 .debug_line    0x0000043c      0x21c e:/softwares/quartus2/nios2eds/bin/gnu/h-i686-mingw32/bin/../lib/gcc/nios2-elf/4.7.3/../../../../../H-i686-mingw32/nios2-elf/lib/mno-hw-mul\libc.a(lib_a-exit.o)
 .debug_line    0x00000658      0x176 e:/softwares/quartus2/nios2eds/bin/gnu/h-i686-mingw32/bin/../lib/gcc/nios2-elf/4.7.3/../../../../../H-i686-mingw32/nios2-elf/lib/mno-hw-mul\libc.a(lib_a-impure.o)
 .debug_line    0x000007ce      0x21b e:/softwares/quartus2/nios2eds/bin/gnu/h-i686-mingw32/bin/../lib/gcc/nios2-elf/4.7.3/../../../../../H-i686-mingw32/nios2-elf/lib/mno-hw-mul\libc.a(lib_a-printf.o)
 .debug_line    0x000009e9      0x238 e:/softwares/quartus2/nios2eds/bin/gnu/h-i686-mingw32/bin/../lib/gcc/nios2-elf/4.7.3/../../../../../H-i686-mingw32/nios2-elf/lib/mno-hw-mul\libc.a(lib_a-puts.o)
 .debug_line    0x00000c21      0x185 e:/softwares/quartus2/nios2eds/bin/gnu/h-i686-mingw32/bin/../lib/gcc/nios2-elf/4.7.3/../../../../../H-i686-mingw32/nios2-elf/lib/mno-hw-mul\libc.a(lib_a-strlen.o)
 .debug_line    0x00000da6      0xb06 e:/softwares/quartus2/nios2eds/bin/gnu/h-i686-mingw32/bin/../lib/gcc/nios2-elf/4.7.3/../../../../../H-i686-mingw32/nios2-elf/lib/mno-hw-mul\libc.a(lib_a-vfprintf.o)
 .debug_line    0x000018ac      0x26e e:/softwares/quartus2/nios2eds/bin/gnu/h-i686-mingw32/bin/../lib/gcc/nios2-elf/4.7.3/../../../../../H-i686-mingw32/nios2-elf/lib/mno-hw-mul\libc.a(lib_a-wsetup.o)
 .debug_line    0x00001b1a      0x267 e:/softwares/quartus2/nios2eds/bin/gnu/h-i686-mingw32/bin/../lib/gcc/nios2-elf/4.7.3/../../../../../H-i686-mingw32/nios2-elf/lib/mno-hw-mul\libc.a(lib_a-__call_atexit.o)
 .debug_line    0x00001d81      0x893 e:/softwares/quartus2/nios2eds/bin/gnu/h-i686-mingw32/bin/../lib/gcc/nios2-elf/4.7.3/../../../../../H-i686-mingw32/nios2-elf/lib/mno-hw-mul\libc.a(lib_a-dtoa.o)
 .debug_line    0x00002614      0x29f e:/softwares/quartus2/nios2eds/bin/gnu/h-i686-mingw32/bin/../lib/gcc/nios2-elf/4.7.3/../../../../../H-i686-mingw32/nios2-elf/lib/mno-hw-mul\libc.a(lib_a-fflush.o)
 .debug_line    0x000028b3      0x2ea e:/softwares/quartus2/nios2eds/bin/gnu/h-i686-mingw32/bin/../lib/gcc/nios2-elf/4.7.3/../../../../../H-i686-mingw32/nios2-elf/lib/mno-hw-mul\libc.a(lib_a-findfp.o)
 .debug_line    0x00002b9d      0x314 e:/softwares/quartus2/nios2eds/bin/gnu/h-i686-mingw32/bin/../lib/gcc/nios2-elf/4.7.3/../../../../../H-i686-mingw32/nios2-elf/lib/mno-hw-mul\libc.a(lib_a-freer.o)
 .debug_line    0x00002eb1      0x363 e:/softwares/quartus2/nios2eds/bin/gnu/h-i686-mingw32/bin/../lib/gcc/nios2-elf/4.7.3/../../../../../H-i686-mingw32/nios2-elf/lib/mno-hw-mul\libc.a(lib_a-fvwrite.o)
 .debug_line    0x00003214      0x25c e:/softwares/quartus2/nios2eds/bin/gnu/h-i686-mingw32/bin/../lib/gcc/nios2-elf/4.7.3/../../../../../H-i686-mingw32/nios2-elf/lib/mno-hw-mul\libc.a(lib_a-fwalk.o)
 .debug_line    0x00003470      0x234 e:/softwares/quartus2/nios2eds/bin/gnu/h-i686-mingw32/bin/../lib/gcc/nios2-elf/4.7.3/../../../../../H-i686-mingw32/nios2-elf/lib/mno-hw-mul\libc.a(lib_a-locale.o)
 .debug_line    0x000036a4      0x296 e:/softwares/quartus2/nios2eds/bin/gnu/h-i686-mingw32/bin/../lib/gcc/nios2-elf/4.7.3/../../../../../H-i686-mingw32/nios2-elf/lib/mno-hw-mul\libc.a(lib_a-makebuf.o)
 .debug_line    0x0000393a      0x424 e:/softwares/quartus2/nios2eds/bin/gnu/h-i686-mingw32/bin/../lib/gcc/nios2-elf/4.7.3/../../../../../H-i686-mingw32/nios2-elf/lib/mno-hw-mul\libc.a(lib_a-mallocr.o)
 .debug_line    0x00003d5e      0x1f4 e:/softwares/quartus2/nios2eds/bin/gnu/h-i686-mingw32/bin/../lib/gcc/nios2-elf/4.7.3/../../../../../H-i686-mingw32/nios2-elf/lib/mno-hw-mul\libc.a(lib_a-memchr.o)
 .debug_line    0x00003f52      0x144 e:/softwares/quartus2/nios2eds/bin/gnu/h-i686-mingw32/bin/../lib/gcc/nios2-elf/4.7.3/../../../../../H-i686-mingw32/nios2-elf/lib/mno-hw-mul\libc.a(lib_a-memcpy.o)
 .debug_line    0x00004096      0x1f9 e:/softwares/quartus2/nios2eds/bin/gnu/h-i686-mingw32/bin/../lib/gcc/nios2-elf/4.7.3/../../../../../H-i686-mingw32/nios2-elf/lib/mno-hw-mul\libc.a(lib_a-memmove.o)
 .debug_line    0x0000428f      0x1f4 e:/softwares/quartus2/nios2eds/bin/gnu/h-i686-mingw32/bin/../lib/gcc/nios2-elf/4.7.3/../../../../../H-i686-mingw32/nios2-elf/lib/mno-hw-mul\libc.a(lib_a-memset.o)
 .debug_line    0x00004483      0x713 e:/softwares/quartus2/nios2eds/bin/gnu/h-i686-mingw32/bin/../lib/gcc/nios2-elf/4.7.3/../../../../../H-i686-mingw32/nios2-elf/lib/mno-hw-mul\libc.a(lib_a-mprec.o)
 .debug_line    0x00004b96      0x333 e:/softwares/quartus2/nios2eds/bin/gnu/h-i686-mingw32/bin/../lib/gcc/nios2-elf/4.7.3/../../../../../H-i686-mingw32/nios2-elf/lib/mno-hw-mul\libc.a(lib_a-reallocr.o)
 .debug_line    0x00004ec9      0x173 e:/softwares/quartus2/nios2eds/bin/gnu/h-i686-mingw32/bin/../lib/gcc/nios2-elf/4.7.3/../../../../../H-i686-mingw32/nios2-elf/lib/mno-hw-mul\libc.a(lib_a-s_isinfd.o)
 .debug_line    0x0000503c      0x173 e:/softwares/quartus2/nios2eds/bin/gnu/h-i686-mingw32/bin/../lib/gcc/nios2-elf/4.7.3/../../../../../H-i686-mingw32/nios2-elf/lib/mno-hw-mul\libc.a(lib_a-s_isnand.o)
 .debug_line    0x000051af      0x215 e:/softwares/quartus2/nios2eds/bin/gnu/h-i686-mingw32/bin/../lib/gcc/nios2-elf/4.7.3/../../../../../H-i686-mingw32/nios2-elf/lib/mno-hw-mul\libc.a(lib_a-sbrkr.o)
 .debug_line    0x000053c4      0x248 e:/softwares/quartus2/nios2eds/bin/gnu/h-i686-mingw32/bin/../lib/gcc/nios2-elf/4.7.3/../../../../../H-i686-mingw32/nios2-elf/lib/mno-hw-mul\libc.a(lib_a-stdio.o)
 .debug_line    0x0000560c      0x113 e:/softwares/quartus2/nios2eds/bin/gnu/h-i686-mingw32/bin/../lib/gcc/nios2-elf/4.7.3/../../../../../H-i686-mingw32/nios2-elf/lib/mno-hw-mul\libc.a(lib_a-strcmp.o)
 .debug_line    0x0000571f      0x216 e:/softwares/quartus2/nios2eds/bin/gnu/h-i686-mingw32/bin/../lib/gcc/nios2-elf/4.7.3/../../../../../H-i686-mingw32/nios2-elf/lib/mno-hw-mul\libc.a(lib_a-writer.o)
 .debug_line    0x00005935      0x1c9 e:/softwares/quartus2/nios2eds/bin/gnu/h-i686-mingw32/bin/../lib/gcc/nios2-elf/4.7.3/../../../../../H-i686-mingw32/nios2-elf/lib/mno-hw-mul\libc.a(lib_a-callocr.o)
 .debug_line    0x00005afe      0x216 e:/softwares/quartus2/nios2eds/bin/gnu/h-i686-mingw32/bin/../lib/gcc/nios2-elf/4.7.3/../../../../../H-i686-mingw32/nios2-elf/lib/mno-hw-mul\libc.a(lib_a-closer.o)
 .debug_line    0x00005d14      0x269 e:/softwares/quartus2/nios2eds/bin/gnu/h-i686-mingw32/bin/../lib/gcc/nios2-elf/4.7.3/../../../../../H-i686-mingw32/nios2-elf/lib/mno-hw-mul\libc.a(lib_a-fclose.o)
 .debug_line    0x00005f7d      0x21f e:/softwares/quartus2/nios2eds/bin/gnu/h-i686-mingw32/bin/../lib/gcc/nios2-elf/4.7.3/../../../../../H-i686-mingw32/nios2-elf/lib/mno-hw-mul\libc.a(lib_a-fstatr.o)
 .debug_line    0x0000619c       0x60 e:/softwares/quartus2/nios2eds/bin/gnu/h-i686-mingw32/bin/../lib/gcc/nios2-elf/4.7.3/../../../../../H-i686-mingw32/nios2-elf/lib/mno-hw-mul\libc.a(lib_a-int_errno.o)
 .debug_line    0x000061fc      0x217 e:/softwares/quartus2/nios2eds/bin/gnu/h-i686-mingw32/bin/../lib/gcc/nios2-elf/4.7.3/../../../../../H-i686-mingw32/nios2-elf/lib/mno-hw-mul\libc.a(lib_a-isattyr.o)
 .debug_line    0x00006413      0x221 e:/softwares/quartus2/nios2eds/bin/gnu/h-i686-mingw32/bin/../lib/gcc/nios2-elf/4.7.3/../../../../../H-i686-mingw32/nios2-elf/lib/mno-hw-mul\libc.a(lib_a-lseekr.o)
 .debug_line    0x00006634      0x215 e:/softwares/quartus2/nios2eds/bin/gnu/h-i686-mingw32/bin/../lib/gcc/nios2-elf/4.7.3/../../../../../H-i686-mingw32/nios2-elf/lib/mno-hw-mul\libc.a(lib_a-readr.o)
 .debug_line    0x00006849      0x11c e:/softwares/quartus2/nios2eds/bin/gnu/h-i686-mingw32/bin/../lib/gcc/nios2-elf/4.7.3/mno-hw-mul\libgcc.a(_udivdi3.o)
 .debug_line    0x00006965      0x124 e:/softwares/quartus2/nios2eds/bin/gnu/h-i686-mingw32/bin/../lib/gcc/nios2-elf/4.7.3/mno-hw-mul\libgcc.a(_umoddi3.o)
 .debug_line    0x00006a89      0x134 e:/softwares/quartus2/nios2eds/bin/gnu/h-i686-mingw32/bin/../lib/gcc/nios2-elf/4.7.3/mno-hw-mul\libgcc.a(_addsub_df.o)
 .debug_line    0x00006bbd      0x117 e:/softwares/quartus2/nios2eds/bin/gnu/h-i686-mingw32/bin/../lib/gcc/nios2-elf/4.7.3/mno-hw-mul\libgcc.a(_mul_df.o)
 .debug_line    0x00006cd4       0xd1 e:/softwares/quartus2/nios2eds/bin/gnu/h-i686-mingw32/bin/../lib/gcc/nios2-elf/4.7.3/mno-hw-mul\libgcc.a(_div_df.o)
 .debug_line    0x00006da5       0x70 e:/softwares/quartus2/nios2eds/bin/gnu/h-i686-mingw32/bin/../lib/gcc/nios2-elf/4.7.3/mno-hw-mul\libgcc.a(_eq_df.o)
 .debug_line    0x00006e15       0x70 e:/softwares/quartus2/nios2eds/bin/gnu/h-i686-mingw32/bin/../lib/gcc/nios2-elf/4.7.3/mno-hw-mul\libgcc.a(_ne_df.o)
 .debug_line    0x00006e85       0x71 e:/softwares/quartus2/nios2eds/bin/gnu/h-i686-mingw32/bin/../lib/gcc/nios2-elf/4.7.3/mno-hw-mul\libgcc.a(_gt_df.o)
 .debug_line    0x00006ef6       0x71 e:/softwares/quartus2/nios2eds/bin/gnu/h-i686-mingw32/bin/../lib/gcc/nios2-elf/4.7.3/mno-hw-mul\libgcc.a(_ge_df.o)
 .debug_line    0x00006f67       0x70 e:/softwares/quartus2/nios2eds/bin/gnu/h-i686-mingw32/bin/../lib/gcc/nios2-elf/4.7.3/mno-hw-mul\libgcc.a(_lt_df.o)
 .debug_line    0x00006fd7       0x97 e:/softwares/quartus2/nios2eds/bin/gnu/h-i686-mingw32/bin/../lib/gcc/nios2-elf/4.7.3/mno-hw-mul\libgcc.a(_si_to_df.o)
 .debug_line    0x0000706e       0x90 e:/softwares/quartus2/nios2eds/bin/gnu/h-i686-mingw32/bin/../lib/gcc/nios2-elf/4.7.3/mno-hw-mul\libgcc.a(_df_to_si.o)
 .debug_line    0x000070fe       0x54 e:/softwares/quartus2/nios2eds/bin/gnu/h-i686-mingw32/bin/../lib/gcc/nios2-elf/4.7.3/mno-hw-mul\libgcc.a(_thenan_df.o)
 .debug_line    0x00007152       0xa1 e:/softwares/quartus2/nios2eds/bin/gnu/h-i686-mingw32/bin/../lib/gcc/nios2-elf/4.7.3/mno-hw-mul\libgcc.a(_usi_to_df.o)
 .debug_line    0x000071f3       0xa2 e:/softwares/quartus2/nios2eds/bin/gnu/h-i686-mingw32/bin/../lib/gcc/nios2-elf/4.7.3/mno-hw-mul\libgcc.a(_muldi3.o)
 .debug_line    0x00007295       0x56 e:/softwares/quartus2/nios2eds/bin/gnu/h-i686-mingw32/bin/../lib/gcc/nios2-elf/4.7.3/mno-hw-mul\libgcc.a(_clz.o)
 .debug_line    0x000072eb       0x8f e:/softwares/quartus2/nios2eds/bin/gnu/h-i686-mingw32/bin/../lib/gcc/nios2-elf/4.7.3/mno-hw-mul\libgcc.a(_clzsi2.o)
 .debug_line    0x0000737a       0xca e:/softwares/quartus2/nios2eds/bin/gnu/h-i686-mingw32/bin/../lib/gcc/nios2-elf/4.7.3/mno-hw-mul\libgcc.a(_pack_df.o)
 .debug_line    0x00007444       0xa5 e:/softwares/quartus2/nios2eds/bin/gnu/h-i686-mingw32/bin/../lib/gcc/nios2-elf/4.7.3/mno-hw-mul\libgcc.a(_unpack_df.o)
 .debug_line    0x000074e9       0x99 e:/softwares/quartus2/nios2eds/bin/gnu/h-i686-mingw32/bin/../lib/gcc/nios2-elf/4.7.3/mno-hw-mul\libgcc.a(_fpcmp_parts_df.o)
 .debug_line    0x00007582       0x7a e:/softwares/quartus2/nios2eds/bin/gnu/h-i686-mingw32/bin/../lib/gcc/nios2-elf/4.7.3/mno-hw-mul\libgcc.a(_lshrdi3.o)
 .debug_line    0x000075fc       0x78 e:/softwares/quartus2/nios2eds/bin/gnu/h-i686-mingw32/bin/../lib/gcc/nios2-elf/4.7.3/mno-hw-mul\libgcc.a(_ashldi3.o)
 .debug_line    0x00007674      0x18d ../lab_crc_bsp/\libhal_bsp.a(alt_close.o)
 .debug_line    0x00007801      0x120 ../lab_crc_bsp/\libhal_bsp.a(alt_dev.o)
 .debug_line    0x00007921       0x51 ../lab_crc_bsp/\libhal_bsp.a(alt_errno.o)
 .debug_line    0x00007972       0x71 ../lab_crc_bsp/\libhal_bsp.a(alt_exit.o)
 .debug_line    0x000079e3      0x187 ../lab_crc_bsp/\libhal_bsp.a(alt_fstat.o)
 .debug_line    0x00007b6a      0x187 ../lab_crc_bsp/\libhal_bsp.a(alt_isatty.o)
 .debug_line    0x00007cf1       0x92 ../lab_crc_bsp/\libhal_bsp.a(alt_load.o)
 .debug_line    0x00007d83      0x18b ../lab_crc_bsp/\libhal_bsp.a(alt_lseek.o)
 .debug_line    0x00007f0e       0xa4 ../lab_crc_bsp/\libhal_bsp.a(alt_main.o)
 .debug_line    0x00007fb2      0x14d ../lab_crc_bsp/\libhal_bsp.a(alt_malloc_lock.o)
 .debug_line    0x000080ff      0x207 ../lab_crc_bsp/\libhal_bsp.a(alt_read.o)
 .debug_line    0x00008306       0xb0 ../lab_crc_bsp/\libhal_bsp.a(alt_release_fd.o)
 .debug_line    0x000083b6      0x11b ../lab_crc_bsp/\libhal_bsp.a(alt_sbrk.o)
 .debug_line    0x000084d1      0x206 ../lab_crc_bsp/\libhal_bsp.a(alt_write.o)
 .debug_line    0x000086d7      0x155 ../lab_crc_bsp/\libhal_bsp.a(alt_sys_init.o)
 .debug_line    0x0000882c      0x131 ../lab_crc_bsp/\libhal_bsp.a(altera_avalon_jtag_uart_fd.o)
 .debug_line    0x0000895d      0x199 ../lab_crc_bsp/\libhal_bsp.a(altera_avalon_jtag_uart_init.o)
 .debug_line    0x00008af6      0x129 ../lab_crc_bsp/\libhal_bsp.a(altera_avalon_jtag_uart_ioctl.o)
 .debug_line    0x00008c1f      0x174 ../lab_crc_bsp/\libhal_bsp.a(altera_avalon_jtag_uart_read.o)
 .debug_line    0x00008d93      0x173 ../lab_crc_bsp/\libhal_bsp.a(altera_avalon_jtag_uart_write.o)
 .debug_line    0x00008f06       0xfd ../lab_crc_bsp/\libhal_bsp.a(altera_avalon_timer_sc.o)
 .debug_line    0x00009003       0xdd ../lab_crc_bsp/\libhal_bsp.a(altera_avalon_timer_ts.o)
 .debug_line    0x000090e0       0x8a ../lab_crc_bsp/\libhal_bsp.a(altera_avalon_timer_vars.o)
 .debug_line    0x0000916a       0xfa ../lab_crc_bsp/\libhal_bsp.a(alt_alarm_start.o)
 .debug_line    0x00009264       0x51 ../lab_crc_bsp/\libhal_bsp.a(alt_dcache_flush_all.o)
 .debug_line    0x000092b5       0xd0 ../lab_crc_bsp/\libhal_bsp.a(alt_dev_llist_insert.o)
 .debug_line    0x00009385       0x59 ../lab_crc_bsp/\libhal_bsp.a(alt_do_ctors.o)
 .debug_line    0x000093de       0x59 ../lab_crc_bsp/\libhal_bsp.a(alt_do_dtors.o)
 .debug_line    0x00009437       0x4f ../lab_crc_bsp/\libhal_bsp.a(alt_icache_flush_all.o)
 .debug_line    0x00009486       0xed ../lab_crc_bsp/\libhal_bsp.a(alt_iic.o)
 .debug_line    0x00009573       0xdb ../lab_crc_bsp/\libhal_bsp.a(alt_iic_isr_register.o)
 .debug_line    0x0000964e      0x15d ../lab_crc_bsp/\libhal_bsp.a(alt_io_redirect.o)
 .debug_line    0x000097ab       0x6b ../lab_crc_bsp/\libhal_bsp.a(alt_irq_entry.o)
 .debug_line    0x00009816       0xae ../lab_crc_bsp/\libhal_bsp.a(alt_irq_handler.o)
 .debug_line    0x000098c4       0x50 ../lab_crc_bsp/\libhal_bsp.a(alt_irq_vars.o)
 .debug_line    0x00009914      0x128 ../lab_crc_bsp/\libhal_bsp.a(alt_open.o)
 .debug_line    0x00009a3c      0x102 ../lab_crc_bsp/\libhal_bsp.a(alt_tick.o)
 .debug_line    0x00009b3e       0x51 ../lab_crc_bsp/\libhal_bsp.a(altera_nios2_qsys_irq.o)
 .debug_line    0x00009b8f       0xab ../lab_crc_bsp/\libhal_bsp.a(alt_exception_entry.o)
 .debug_line    0x00009c3a       0xb9 ../lab_crc_bsp/\libhal_bsp.a(alt_find_dev.o)
 .debug_line    0x00009cf3       0xd5 ../lab_crc_bsp/\libhal_bsp.a(alt_find_file.o)
 .debug_line    0x00009dc8       0xd4 ../lab_crc_bsp/\libhal_bsp.a(alt_get_fd.o)
 .debug_line    0x00009e9c      0x170 e:/softwares/quartus2/nios2eds/bin/gnu/h-i686-mingw32/bin/../lib/gcc/nios2-elf/4.7.3/../../../../../H-i686-mingw32/nios2-elf/lib/mno-hw-mul\libc.a(lib_a-atexit.o)
 .debug_line    0x0000a00c      0x190 e:/softwares/quartus2/nios2eds/bin/gnu/h-i686-mingw32/bin/../lib/gcc/nios2-elf/4.7.3/../../../../../H-i686-mingw32/nios2-elf/lib/mno-hw-mul\libc.a(lib_a-memcmp.o)
 .debug_line    0x0000a19c      0x253 e:/softwares/quartus2/nios2eds/bin/gnu/h-i686-mingw32/bin/../lib/gcc/nios2-elf/4.7.3/../../../../../H-i686-mingw32/nios2-elf/lib/mno-hw-mul\libc.a(lib_a-__atexit.o)

.debug_frame    0x00000000     0x18f0
 *(.debug_frame)
 .debug_frame   0x00000000       0x2c obj/default/ci_crc.o
 .debug_frame   0x0000002c       0x80 obj/default/crc.o
 .debug_frame   0x000000ac       0x30 obj/default/crc_main.o
 .debug_frame   0x000000dc       0x70 e:/softwares/quartus2/nios2eds/bin/gnu/h-i686-mingw32/bin/../lib/gcc/nios2-elf/4.7.3/mno-hw-mul\libgcc.a(lib2-divmod.o)
 .debug_frame   0x0000014c       0x20 e:/softwares/quartus2/nios2eds/bin/gnu/h-i686-mingw32/bin/../lib/gcc/nios2-elf/4.7.3/mno-hw-mul\libgcc.a(lib2-mul.o)
 .debug_frame   0x0000016c       0x28 e:/softwares/quartus2/nios2eds/bin/gnu/h-i686-mingw32/bin/../lib/gcc/nios2-elf/4.7.3/../../../../../H-i686-mingw32/nios2-elf/lib/mno-hw-mul\libc.a(lib_a-exit.o)
 .debug_frame   0x00000194       0x40 e:/softwares/quartus2/nios2eds/bin/gnu/h-i686-mingw32/bin/../lib/gcc/nios2-elf/4.7.3/../../../../../H-i686-mingw32/nios2-elf/lib/mno-hw-mul\libc.a(lib_a-printf.o)
 .debug_frame   0x000001d4       0x3c e:/softwares/quartus2/nios2eds/bin/gnu/h-i686-mingw32/bin/../lib/gcc/nios2-elf/4.7.3/../../../../../H-i686-mingw32/nios2-elf/lib/mno-hw-mul\libc.a(lib_a-puts.o)
 .debug_frame   0x00000210       0x20 e:/softwares/quartus2/nios2eds/bin/gnu/h-i686-mingw32/bin/../lib/gcc/nios2-elf/4.7.3/../../../../../H-i686-mingw32/nios2-elf/lib/mno-hw-mul\libc.a(lib_a-strlen.o)
 .debug_frame   0x00000230       0x64 e:/softwares/quartus2/nios2eds/bin/gnu/h-i686-mingw32/bin/../lib/gcc/nios2-elf/4.7.3/../../../../../H-i686-mingw32/nios2-elf/lib/mno-hw-mul\libc.a(lib_a-vfprintf.o)
 .debug_frame   0x00000294       0x2c e:/softwares/quartus2/nios2eds/bin/gnu/h-i686-mingw32/bin/../lib/gcc/nios2-elf/4.7.3/../../../../../H-i686-mingw32/nios2-elf/lib/mno-hw-mul\libc.a(lib_a-wsetup.o)
 .debug_frame   0x000002c0       0x38 e:/softwares/quartus2/nios2eds/bin/gnu/h-i686-mingw32/bin/../lib/gcc/nios2-elf/4.7.3/../../../../../H-i686-mingw32/nios2-elf/lib/mno-hw-mul\libc.a(lib_a-__call_atexit.o)
 .debug_frame   0x000002f8       0x68 e:/softwares/quartus2/nios2eds/bin/gnu/h-i686-mingw32/bin/../lib/gcc/nios2-elf/4.7.3/../../../../../H-i686-mingw32/nios2-elf/lib/mno-hw-mul\libc.a(lib_a-dtoa.o)
 .debug_frame   0x00000360       0x40 e:/softwares/quartus2/nios2eds/bin/gnu/h-i686-mingw32/bin/../lib/gcc/nios2-elf/4.7.3/../../../../../H-i686-mingw32/nios2-elf/lib/mno-hw-mul\libc.a(lib_a-fflush.o)
 .debug_frame   0x000003a0      0x100 e:/softwares/quartus2/nios2eds/bin/gnu/h-i686-mingw32/bin/../lib/gcc/nios2-elf/4.7.3/../../../../../H-i686-mingw32/nios2-elf/lib/mno-hw-mul\libc.a(lib_a-findfp.o)
 .debug_frame   0x000004a0       0x4c e:/softwares/quartus2/nios2eds/bin/gnu/h-i686-mingw32/bin/../lib/gcc/nios2-elf/4.7.3/../../../../../H-i686-mingw32/nios2-elf/lib/mno-hw-mul\libc.a(lib_a-freer.o)
 .debug_frame   0x000004ec       0x38 e:/softwares/quartus2/nios2eds/bin/gnu/h-i686-mingw32/bin/../lib/gcc/nios2-elf/4.7.3/../../../../../H-i686-mingw32/nios2-elf/lib/mno-hw-mul\libc.a(lib_a-fvwrite.o)
 .debug_frame   0x00000524       0x5c e:/softwares/quartus2/nios2eds/bin/gnu/h-i686-mingw32/bin/../lib/gcc/nios2-elf/4.7.3/../../../../../H-i686-mingw32/nios2-elf/lib/mno-hw-mul\libc.a(lib_a-fwalk.o)
 .debug_frame   0x00000580       0x6c e:/softwares/quartus2/nios2eds/bin/gnu/h-i686-mingw32/bin/../lib/gcc/nios2-elf/4.7.3/../../../../../H-i686-mingw32/nios2-elf/lib/mno-hw-mul\libc.a(lib_a-locale.o)
 .debug_frame   0x000005ec       0x2c e:/softwares/quartus2/nios2eds/bin/gnu/h-i686-mingw32/bin/../lib/gcc/nios2-elf/4.7.3/../../../../../H-i686-mingw32/nios2-elf/lib/mno-hw-mul\libc.a(lib_a-makebuf.o)
 .debug_frame   0x00000618       0x38 e:/softwares/quartus2/nios2eds/bin/gnu/h-i686-mingw32/bin/../lib/gcc/nios2-elf/4.7.3/../../../../../H-i686-mingw32/nios2-elf/lib/mno-hw-mul\libc.a(lib_a-mallocr.o)
 .debug_frame   0x00000650       0x20 e:/softwares/quartus2/nios2eds/bin/gnu/h-i686-mingw32/bin/../lib/gcc/nios2-elf/4.7.3/../../../../../H-i686-mingw32/nios2-elf/lib/mno-hw-mul\libc.a(lib_a-memchr.o)
 .debug_frame   0x00000670       0x30 e:/softwares/quartus2/nios2eds/bin/gnu/h-i686-mingw32/bin/../lib/gcc/nios2-elf/4.7.3/../../../../../H-i686-mingw32/nios2-elf/lib/mno-hw-mul\libc.a(lib_a-memcpy.o)
 .debug_frame   0x000006a0       0x30 e:/softwares/quartus2/nios2eds/bin/gnu/h-i686-mingw32/bin/../lib/gcc/nios2-elf/4.7.3/../../../../../H-i686-mingw32/nios2-elf/lib/mno-hw-mul\libc.a(lib_a-memmove.o)
 .debug_frame   0x000006d0       0x20 e:/softwares/quartus2/nios2eds/bin/gnu/h-i686-mingw32/bin/../lib/gcc/nios2-elf/4.7.3/../../../../../H-i686-mingw32/nios2-elf/lib/mno-hw-mul\libc.a(lib_a-memset.o)
 .debug_frame   0x000006f0      0x218 e:/softwares/quartus2/nios2eds/bin/gnu/h-i686-mingw32/bin/../lib/gcc/nios2-elf/4.7.3/../../../../../H-i686-mingw32/nios2-elf/lib/mno-hw-mul\libc.a(lib_a-mprec.o)
 .debug_frame   0x00000908       0x38 e:/softwares/quartus2/nios2eds/bin/gnu/h-i686-mingw32/bin/../lib/gcc/nios2-elf/4.7.3/../../../../../H-i686-mingw32/nios2-elf/lib/mno-hw-mul\libc.a(lib_a-reallocr.o)
 .debug_frame   0x00000940       0x20 e:/softwares/quartus2/nios2eds/bin/gnu/h-i686-mingw32/bin/../lib/gcc/nios2-elf/4.7.3/../../../../../H-i686-mingw32/nios2-elf/lib/mno-hw-mul\libc.a(lib_a-s_isinfd.o)
 .debug_frame   0x00000960       0x20 e:/softwares/quartus2/nios2eds/bin/gnu/h-i686-mingw32/bin/../lib/gcc/nios2-elf/4.7.3/../../../../../H-i686-mingw32/nios2-elf/lib/mno-hw-mul\libc.a(lib_a-s_isnand.o)
 .debug_frame   0x00000980       0x2c e:/softwares/quartus2/nios2eds/bin/gnu/h-i686-mingw32/bin/../lib/gcc/nios2-elf/4.7.3/../../../../../H-i686-mingw32/nios2-elf/lib/mno-hw-mul\libc.a(lib_a-sbrkr.o)
 .debug_frame   0x000009ac       0x78 e:/softwares/quartus2/nios2eds/bin/gnu/h-i686-mingw32/bin/../lib/gcc/nios2-elf/4.7.3/../../../../../H-i686-mingw32/nios2-elf/lib/mno-hw-mul\libc.a(lib_a-stdio.o)
 .debug_frame   0x00000a24       0x20 e:/softwares/quartus2/nios2eds/bin/gnu/h-i686-mingw32/bin/../lib/gcc/nios2-elf/4.7.3/../../../../../H-i686-mingw32/nios2-elf/lib/mno-hw-mul\libc.a(lib_a-strcmp.o)
 .debug_frame   0x00000a44       0x2c e:/softwares/quartus2/nios2eds/bin/gnu/h-i686-mingw32/bin/../lib/gcc/nios2-elf/4.7.3/../../../../../H-i686-mingw32/nios2-elf/lib/mno-hw-mul\libc.a(lib_a-writer.o)
 .debug_frame   0x00000a70       0x2c e:/softwares/quartus2/nios2eds/bin/gnu/h-i686-mingw32/bin/../lib/gcc/nios2-elf/4.7.3/../../../../../H-i686-mingw32/nios2-elf/lib/mno-hw-mul\libc.a(lib_a-callocr.o)
 .debug_frame   0x00000a9c       0x2c e:/softwares/quartus2/nios2eds/bin/gnu/h-i686-mingw32/bin/../lib/gcc/nios2-elf/4.7.3/../../../../../H-i686-mingw32/nios2-elf/lib/mno-hw-mul\libc.a(lib_a-closer.o)
 .debug_frame   0x00000ac8       0x3c e:/softwares/quartus2/nios2eds/bin/gnu/h-i686-mingw32/bin/../lib/gcc/nios2-elf/4.7.3/../../../../../H-i686-mingw32/nios2-elf/lib/mno-hw-mul\libc.a(lib_a-fclose.o)
 .debug_frame   0x00000b04       0x2c e:/softwares/quartus2/nios2eds/bin/gnu/h-i686-mingw32/bin/../lib/gcc/nios2-elf/4.7.3/../../../../../H-i686-mingw32/nios2-elf/lib/mno-hw-mul\libc.a(lib_a-fstatr.o)
 .debug_frame   0x00000b30       0x2c e:/softwares/quartus2/nios2eds/bin/gnu/h-i686-mingw32/bin/../lib/gcc/nios2-elf/4.7.3/../../../../../H-i686-mingw32/nios2-elf/lib/mno-hw-mul\libc.a(lib_a-isattyr.o)
 .debug_frame   0x00000b5c       0x2c e:/softwares/quartus2/nios2eds/bin/gnu/h-i686-mingw32/bin/../lib/gcc/nios2-elf/4.7.3/../../../../../H-i686-mingw32/nios2-elf/lib/mno-hw-mul\libc.a(lib_a-lseekr.o)
 .debug_frame   0x00000b88       0x2c e:/softwares/quartus2/nios2eds/bin/gnu/h-i686-mingw32/bin/../lib/gcc/nios2-elf/4.7.3/../../../../../H-i686-mingw32/nios2-elf/lib/mno-hw-mul\libc.a(lib_a-readr.o)
 .debug_frame   0x00000bb4       0x38 e:/softwares/quartus2/nios2eds/bin/gnu/h-i686-mingw32/bin/../lib/gcc/nios2-elf/4.7.3/mno-hw-mul\libgcc.a(_udivdi3.o)
 .debug_frame   0x00000bec       0x38 e:/softwares/quartus2/nios2eds/bin/gnu/h-i686-mingw32/bin/../lib/gcc/nios2-elf/4.7.3/mno-hw-mul\libgcc.a(_umoddi3.o)
 .debug_frame   0x00000c24       0x50 e:/softwares/quartus2/nios2eds/bin/gnu/h-i686-mingw32/bin/../lib/gcc/nios2-elf/4.7.3/mno-hw-mul\libgcc.a(_addsub_df.o)
 .debug_frame   0x00000c74       0x38 e:/softwares/quartus2/nios2eds/bin/gnu/h-i686-mingw32/bin/../lib/gcc/nios2-elf/4.7.3/mno-hw-mul\libgcc.a(_mul_df.o)
 .debug_frame   0x00000cac       0x28 e:/softwares/quartus2/nios2eds/bin/gnu/h-i686-mingw32/bin/../lib/gcc/nios2-elf/4.7.3/mno-hw-mul\libgcc.a(_div_df.o)
 .debug_frame   0x00000cd4       0x28 e:/softwares/quartus2/nios2eds/bin/gnu/h-i686-mingw32/bin/../lib/gcc/nios2-elf/4.7.3/mno-hw-mul\libgcc.a(_eq_df.o)
 .debug_frame   0x00000cfc       0x28 e:/softwares/quartus2/nios2eds/bin/gnu/h-i686-mingw32/bin/../lib/gcc/nios2-elf/4.7.3/mno-hw-mul\libgcc.a(_ne_df.o)
 .debug_frame   0x00000d24       0x28 e:/softwares/quartus2/nios2eds/bin/gnu/h-i686-mingw32/bin/../lib/gcc/nios2-elf/4.7.3/mno-hw-mul\libgcc.a(_gt_df.o)
 .debug_frame   0x00000d4c       0x28 e:/softwares/quartus2/nios2eds/bin/gnu/h-i686-mingw32/bin/../lib/gcc/nios2-elf/4.7.3/mno-hw-mul\libgcc.a(_ge_df.o)
 .debug_frame   0x00000d74       0x28 e:/softwares/quartus2/nios2eds/bin/gnu/h-i686-mingw32/bin/../lib/gcc/nios2-elf/4.7.3/mno-hw-mul\libgcc.a(_lt_df.o)
 .debug_frame   0x00000d9c       0x28 e:/softwares/quartus2/nios2eds/bin/gnu/h-i686-mingw32/bin/../lib/gcc/nios2-elf/4.7.3/mno-hw-mul\libgcc.a(_si_to_df.o)
 .debug_frame   0x00000dc4       0x28 e:/softwares/quartus2/nios2eds/bin/gnu/h-i686-mingw32/bin/../lib/gcc/nios2-elf/4.7.3/mno-hw-mul\libgcc.a(_df_to_si.o)
 .debug_frame   0x00000dec       0x28 e:/softwares/quartus2/nios2eds/bin/gnu/h-i686-mingw32/bin/../lib/gcc/nios2-elf/4.7.3/mno-hw-mul\libgcc.a(_usi_to_df.o)
 .debug_frame   0x00000e14       0x3c e:/softwares/quartus2/nios2eds/bin/gnu/h-i686-mingw32/bin/../lib/gcc/nios2-elf/4.7.3/mno-hw-mul\libgcc.a(_muldi3.o)
 .debug_frame   0x00000e50       0x20 e:/softwares/quartus2/nios2eds/bin/gnu/h-i686-mingw32/bin/../lib/gcc/nios2-elf/4.7.3/mno-hw-mul\libgcc.a(_clzsi2.o)
 .debug_frame   0x00000e70       0x34 e:/softwares/quartus2/nios2eds/bin/gnu/h-i686-mingw32/bin/../lib/gcc/nios2-elf/4.7.3/mno-hw-mul\libgcc.a(_pack_df.o)
 .debug_frame   0x00000ea4       0x20 e:/softwares/quartus2/nios2eds/bin/gnu/h-i686-mingw32/bin/../lib/gcc/nios2-elf/4.7.3/mno-hw-mul\libgcc.a(_unpack_df.o)
 .debug_frame   0x00000ec4       0x20 e:/softwares/quartus2/nios2eds/bin/gnu/h-i686-mingw32/bin/../lib/gcc/nios2-elf/4.7.3/mno-hw-mul\libgcc.a(_fpcmp_parts_df.o)
 .debug_frame   0x00000ee4       0x20 e:/softwares/quartus2/nios2eds/bin/gnu/h-i686-mingw32/bin/../lib/gcc/nios2-elf/4.7.3/mno-hw-mul\libgcc.a(_lshrdi3.o)
 .debug_frame   0x00000f04       0x20 e:/softwares/quartus2/nios2eds/bin/gnu/h-i686-mingw32/bin/../lib/gcc/nios2-elf/4.7.3/mno-hw-mul\libgcc.a(_ashldi3.o)
 .debug_frame   0x00000f24       0x48 ../lab_crc_bsp/\libhal_bsp.a(alt_close.o)
 .debug_frame   0x00000f6c       0x2c ../lab_crc_bsp/\libhal_bsp.a(alt_dev.o)
 .debug_frame   0x00000f98       0x2c ../lab_crc_bsp/\libhal_bsp.a(alt_exit.o)
 .debug_frame   0x00000fc4       0x48 ../lab_crc_bsp/\libhal_bsp.a(alt_fstat.o)
 .debug_frame   0x0000100c       0x48 ../lab_crc_bsp/\libhal_bsp.a(alt_isatty.o)
 .debug_frame   0x00001054       0x48 ../lab_crc_bsp/\libhal_bsp.a(alt_load.o)
 .debug_frame   0x0000109c       0x48 ../lab_crc_bsp/\libhal_bsp.a(alt_lseek.o)
 .debug_frame   0x000010e4       0x2c ../lab_crc_bsp/\libhal_bsp.a(alt_main.o)
 .debug_frame   0x00001110       0x48 ../lab_crc_bsp/\libhal_bsp.a(alt_malloc_lock.o)
 .debug_frame   0x00001158       0x48 ../lab_crc_bsp/\libhal_bsp.a(alt_read.o)
 .debug_frame   0x000011a0       0x30 ../lab_crc_bsp/\libhal_bsp.a(alt_release_fd.o)
 .debug_frame   0x000011d0       0x2c ../lab_crc_bsp/\libhal_bsp.a(alt_sbrk.o)
 .debug_frame   0x000011fc       0x48 ../lab_crc_bsp/\libhal_bsp.a(alt_write.o)
 .debug_frame   0x00001244       0x64 ../lab_crc_bsp/\libhal_bsp.a(alt_sys_init.o)
 .debug_frame   0x000012a8       0x80 ../lab_crc_bsp/\libhal_bsp.a(altera_avalon_jtag_uart_fd.o)
 .debug_frame   0x00001328       0x80 ../lab_crc_bsp/\libhal_bsp.a(altera_avalon_jtag_uart_init.o)
 .debug_frame   0x000013a8       0x2c ../lab_crc_bsp/\libhal_bsp.a(altera_avalon_jtag_uart_ioctl.o)
 .debug_frame   0x000013d4       0x2c ../lab_crc_bsp/\libhal_bsp.a(altera_avalon_jtag_uart_read.o)
 .debug_frame   0x00001400       0x2c ../lab_crc_bsp/\libhal_bsp.a(altera_avalon_jtag_uart_write.o)
 .debug_frame   0x0000142c       0x48 ../lab_crc_bsp/\libhal_bsp.a(altera_avalon_timer_sc.o)
 .debug_frame   0x00001474       0x64 ../lab_crc_bsp/\libhal_bsp.a(altera_avalon_timer_ts.o)
 .debug_frame   0x000014d8       0x2c ../lab_crc_bsp/\libhal_bsp.a(alt_alarm_start.o)
 .debug_frame   0x00001504       0x2c ../lab_crc_bsp/\libhal_bsp.a(alt_dcache_flush_all.o)
 .debug_frame   0x00001530       0x48 ../lab_crc_bsp/\libhal_bsp.a(alt_dev_llist_insert.o)
 .debug_frame   0x00001578       0x2c ../lab_crc_bsp/\libhal_bsp.a(alt_do_ctors.o)
 .debug_frame   0x000015a4       0x2c ../lab_crc_bsp/\libhal_bsp.a(alt_do_dtors.o)
 .debug_frame   0x000015d0       0x2c ../lab_crc_bsp/\libhal_bsp.a(alt_icache_flush_all.o)
 .debug_frame   0x000015fc       0x80 ../lab_crc_bsp/\libhal_bsp.a(alt_iic.o)
 .debug_frame   0x0000167c       0x2c ../lab_crc_bsp/\libhal_bsp.a(alt_iic_isr_register.o)
 .debug_frame   0x000016a8       0x4c ../lab_crc_bsp/\libhal_bsp.a(alt_io_redirect.o)
 .debug_frame   0x000016f4       0x2c ../lab_crc_bsp/\libhal_bsp.a(alt_irq_handler.o)
 .debug_frame   0x00001720       0x68 ../lab_crc_bsp/\libhal_bsp.a(alt_open.o)
 .debug_frame   0x00001788       0x48 ../lab_crc_bsp/\libhal_bsp.a(alt_tick.o)
 .debug_frame   0x000017d0       0x2c ../lab_crc_bsp/\libhal_bsp.a(altera_nios2_qsys_irq.o)
 .debug_frame   0x000017fc       0x2c ../lab_crc_bsp/\libhal_bsp.a(alt_find_dev.o)
 .debug_frame   0x00001828       0x2c ../lab_crc_bsp/\libhal_bsp.a(alt_find_file.o)
 .debug_frame   0x00001854       0x30 ../lab_crc_bsp/\libhal_bsp.a(alt_get_fd.o)
 .debug_frame   0x00001884       0x20 e:/softwares/quartus2/nios2eds/bin/gnu/h-i686-mingw32/bin/../lib/gcc/nios2-elf/4.7.3/../../../../../H-i686-mingw32/nios2-elf/lib/mno-hw-mul\libc.a(lib_a-atexit.o)
 .debug_frame   0x000018a4       0x20 e:/softwares/quartus2/nios2eds/bin/gnu/h-i686-mingw32/bin/../lib/gcc/nios2-elf/4.7.3/../../../../../H-i686-mingw32/nios2-elf/lib/mno-hw-mul\libc.a(lib_a-memcmp.o)
 .debug_frame   0x000018c4       0x2c e:/softwares/quartus2/nios2eds/bin/gnu/h-i686-mingw32/bin/../lib/gcc/nios2-elf/4.7.3/../../../../../H-i686-mingw32/nios2-elf/lib/mno-hw-mul\libc.a(lib_a-__atexit.o)

.debug_str      0x00000000     0x2fa1
 *(.debug_str)
 .debug_str     0x00000000       0xde obj/default/ci_crc.o
                                 0xf6 (size before relaxing)
 .debug_str     0x000000de       0x6a obj/default/crc.o
                                0x129 (size before relaxing)
 .debug_str     0x00000148      0x131 obj/default/crc_main.o
                                0x21f (size before relaxing)
 .debug_str     0x00000279      0x112 e:/softwares/quartus2/nios2eds/bin/gnu/h-i686-mingw32/bin/../lib/gcc/nios2-elf/4.7.3/mno-hw-mul\libgcc.a(lib2-divmod.o)
                                0x169 (size before relaxing)
 .debug_str     0x0000038b       0x40 e:/softwares/quartus2/nios2eds/bin/gnu/h-i686-mingw32/bin/../lib/gcc/nios2-elf/4.7.3/mno-hw-mul\libgcc.a(lib2-mul.o)
                                0x12a (size before relaxing)
 .debug_str     0x000003cb      0x42b e:/softwares/quartus2/nios2eds/bin/gnu/h-i686-mingw32/bin/../lib/gcc/nios2-elf/4.7.3/../../../../../H-i686-mingw32/nios2-elf/lib/mno-hw-mul\libc.a(lib_a-exit.o)
                                0x53d (size before relaxing)
 .debug_str     0x000007f6       0xe2 e:/softwares/quartus2/nios2eds/bin/gnu/h-i686-mingw32/bin/../lib/gcc/nios2-elf/4.7.3/../../../../../H-i686-mingw32/nios2-elf/lib/mno-hw-mul\libc.a(lib_a-impure.o)
                                0x534 (size before relaxing)
 .debug_str     0x000008d8      0x12c e:/softwares/quartus2/nios2eds/bin/gnu/h-i686-mingw32/bin/../lib/gcc/nios2-elf/4.7.3/../../../../../H-i686-mingw32/nios2-elf/lib/mno-hw-mul\libc.a(lib_a-printf.o)
                                0x57f (size before relaxing)
 .debug_str     0x00000a04       0x98 e:/softwares/quartus2/nios2eds/bin/gnu/h-i686-mingw32/bin/../lib/gcc/nios2-elf/4.7.3/../../../../../H-i686-mingw32/nios2-elf/lib/mno-hw-mul\libc.a(lib_a-puts.o)
                                0x57c (size before relaxing)
 .debug_str     0x00000a9c       0xe5 e:/softwares/quartus2/nios2eds/bin/gnu/h-i686-mingw32/bin/../lib/gcc/nios2-elf/4.7.3/../../../../../H-i686-mingw32/nios2-elf/lib/mno-hw-mul\libc.a(lib_a-strlen.o)
                                0x197 (size before relaxing)
 .debug_str     0x00000b81      0x28b e:/softwares/quartus2/nios2eds/bin/gnu/h-i686-mingw32/bin/../lib/gcc/nios2-elf/4.7.3/../../../../../H-i686-mingw32/nios2-elf/lib/mno-hw-mul\libc.a(lib_a-vfprintf.o)
                                0x896 (size before relaxing)
 .debug_str     0x00000e0c       0x52 e:/softwares/quartus2/nios2eds/bin/gnu/h-i686-mingw32/bin/../lib/gcc/nios2-elf/4.7.3/../../../../../H-i686-mingw32/nios2-elf/lib/mno-hw-mul\libc.a(lib_a-wsetup.o)
                                0x543 (size before relaxing)
 .debug_str     0x00000e5e       0x5f e:/softwares/quartus2/nios2eds/bin/gnu/h-i686-mingw32/bin/../lib/gcc/nios2-elf/4.7.3/../../../../../H-i686-mingw32/nios2-elf/lib/mno-hw-mul\libc.a(lib_a-__call_atexit.o)
                                0x55f (size before relaxing)
 .debug_str     0x00000ebd      0x161 e:/softwares/quartus2/nios2eds/bin/gnu/h-i686-mingw32/bin/../lib/gcc/nios2-elf/4.7.3/../../../../../H-i686-mingw32/nios2-elf/lib/mno-hw-mul\libc.a(lib_a-dtoa.o)
                                0x686 (size before relaxing)
 .debug_str     0x0000101e       0x4b e:/softwares/quartus2/nios2eds/bin/gnu/h-i686-mingw32/bin/../lib/gcc/nios2-elf/4.7.3/../../../../../H-i686-mingw32/nios2-elf/lib/mno-hw-mul\libc.a(lib_a-fflush.o)
                                0x561 (size before relaxing)
 .debug_str     0x00001069      0x10e e:/softwares/quartus2/nios2eds/bin/gnu/h-i686-mingw32/bin/../lib/gcc/nios2-elf/4.7.3/../../../../../H-i686-mingw32/nios2-elf/lib/mno-hw-mul\libc.a(lib_a-findfp.o)
                                0x62d (size before relaxing)
 .debug_str     0x00001177      0x186 e:/softwares/quartus2/nios2eds/bin/gnu/h-i686-mingw32/bin/../lib/gcc/nios2-elf/4.7.3/../../../../../H-i686-mingw32/nios2-elf/lib/mno-hw-mul\libc.a(lib_a-freer.o)
                                0x68d (size before relaxing)
 .debug_str     0x000012fd       0x6f e:/softwares/quartus2/nios2eds/bin/gnu/h-i686-mingw32/bin/../lib/gcc/nios2-elf/4.7.3/../../../../../H-i686-mingw32/nios2-elf/lib/mno-hw-mul\libc.a(lib_a-fvwrite.o)
                                0x5c6 (size before relaxing)
 .debug_str     0x0000136c       0x61 e:/softwares/quartus2/nios2eds/bin/gnu/h-i686-mingw32/bin/../lib/gcc/nios2-elf/4.7.3/../../../../../H-i686-mingw32/nios2-elf/lib/mno-hw-mul\libc.a(lib_a-fwalk.o)
                                0x575 (size before relaxing)
 .debug_str     0x000013cd      0x15a e:/softwares/quartus2/nios2eds/bin/gnu/h-i686-mingw32/bin/../lib/gcc/nios2-elf/4.7.3/../../../../../H-i686-mingw32/nios2-elf/lib/mno-hw-mul\libc.a(lib_a-locale.o)
                                0x6ca (size before relaxing)
 .debug_str     0x00001527      0x12c e:/softwares/quartus2/nios2eds/bin/gnu/h-i686-mingw32/bin/../lib/gcc/nios2-elf/4.7.3/../../../../../H-i686-mingw32/nios2-elf/lib/mno-hw-mul\libc.a(lib_a-makebuf.o)
                                0x63d (size before relaxing)
 .debug_str     0x00001653       0xdb e:/softwares/quartus2/nios2eds/bin/gnu/h-i686-mingw32/bin/../lib/gcc/nios2-elf/4.7.3/../../../../../H-i686-mingw32/nios2-elf/lib/mno-hw-mul\libc.a(lib_a-mallocr.o)
                                0x743 (size before relaxing)
 .debug_str     0x0000172e       0x53 e:/softwares/quartus2/nios2eds/bin/gnu/h-i686-mingw32/bin/../lib/gcc/nios2-elf/4.7.3/../../../../../H-i686-mingw32/nios2-elf/lib/mno-hw-mul\libc.a(lib_a-memchr.o)
                                0x1a5 (size before relaxing)
 .debug_str     0x00001781       0x65 e:/softwares/quartus2/nios2eds/bin/gnu/h-i686-mingw32/bin/../lib/gcc/nios2-elf/4.7.3/../../../../../H-i686-mingw32/nios2-elf/lib/mno-hw-mul\libc.a(lib_a-memcpy.o)
                                0x134 (size before relaxing)
 .debug_str     0x000017e6       0x48 e:/softwares/quartus2/nios2eds/bin/gnu/h-i686-mingw32/bin/../lib/gcc/nios2-elf/4.7.3/../../../../../H-i686-mingw32/nios2-elf/lib/mno-hw-mul\libc.a(lib_a-memmove.o)
                                0x1b7 (size before relaxing)
 .debug_str     0x0000182e       0x3e e:/softwares/quartus2/nios2eds/bin/gnu/h-i686-mingw32/bin/../lib/gcc/nios2-elf/4.7.3/../../../../../H-i686-mingw32/nios2-elf/lib/mno-hw-mul\libc.a(lib_a-memset.o)
                                0x198 (size before relaxing)
 .debug_str     0x0000186c       0xa8 e:/softwares/quartus2/nios2eds/bin/gnu/h-i686-mingw32/bin/../lib/gcc/nios2-elf/4.7.3/../../../../../H-i686-mingw32/nios2-elf/lib/mno-hw-mul\libc.a(lib_a-mprec.o)
                                0x640 (size before relaxing)
 .debug_str     0x00001914       0x4e e:/softwares/quartus2/nios2eds/bin/gnu/h-i686-mingw32/bin/../lib/gcc/nios2-elf/4.7.3/../../../../../H-i686-mingw32/nios2-elf/lib/mno-hw-mul\libc.a(lib_a-reallocr.o)
                                0x615 (size before relaxing)
 .debug_str     0x00001962       0xe4 e:/softwares/quartus2/nios2eds/bin/gnu/h-i686-mingw32/bin/../lib/gcc/nios2-elf/4.7.3/../../../../../H-i686-mingw32/nios2-elf/lib/mno-hw-mul\libc.a(lib_a-s_isinfd.o)
                                0x1af (size before relaxing)
 .debug_str     0x00001a46       0x40 e:/softwares/quartus2/nios2eds/bin/gnu/h-i686-mingw32/bin/../lib/gcc/nios2-elf/4.7.3/../../../../../H-i686-mingw32/nios2-elf/lib/mno-hw-mul\libc.a(lib_a-s_isnand.o)
                                0x1af (size before relaxing)
 .debug_str     0x00001a86       0x46 e:/softwares/quartus2/nios2eds/bin/gnu/h-i686-mingw32/bin/../lib/gcc/nios2-elf/4.7.3/../../../../../H-i686-mingw32/nios2-elf/lib/mno-hw-mul\libc.a(lib_a-sbrkr.o)
                                0x52a (size before relaxing)
 .debug_str     0x00001acc       0x91 e:/softwares/quartus2/nios2eds/bin/gnu/h-i686-mingw32/bin/../lib/gcc/nios2-elf/4.7.3/../../../../../H-i686-mingw32/nios2-elf/lib/mno-hw-mul\libc.a(lib_a-stdio.o)
                                0x57e (size before relaxing)
 .debug_str     0x00001b5d       0x3e e:/softwares/quartus2/nios2eds/bin/gnu/h-i686-mingw32/bin/../lib/gcc/nios2-elf/4.7.3/../../../../../H-i686-mingw32/nios2-elf/lib/mno-hw-mul\libc.a(lib_a-strcmp.o)
                                0x17d (size before relaxing)
 .debug_str     0x00001b9b       0x3d e:/softwares/quartus2/nios2eds/bin/gnu/h-i686-mingw32/bin/../lib/gcc/nios2-elf/4.7.3/../../../../../H-i686-mingw32/nios2-elf/lib/mno-hw-mul\libc.a(lib_a-writer.o)
                                0x52e (size before relaxing)
 .debug_str     0x00001bd8        0xf e:/softwares/quartus2/nios2eds/bin/gnu/h-i686-mingw32/bin/../lib/gcc/nios2-elf/4.7.3/../../../../../H-i686-mingw32/nios2-elf/lib/mno-hw-mul\libc.a(lib_a-callocr.o)
                                0x56d (size before relaxing)
 .debug_str     0x00001be7       0x3d e:/softwares/quartus2/nios2eds/bin/gnu/h-i686-mingw32/bin/../lib/gcc/nios2-elf/4.7.3/../../../../../H-i686-mingw32/nios2-elf/lib/mno-hw-mul\libc.a(lib_a-closer.o)
                                0x51e (size before relaxing)
 .debug_str     0x00001c24       0x4e e:/softwares/quartus2/nios2eds/bin/gnu/h-i686-mingw32/bin/../lib/gcc/nios2-elf/4.7.3/../../../../../H-i686-mingw32/nios2-elf/lib/mno-hw-mul\libc.a(lib_a-fclose.o)
                                0x570 (size before relaxing)
 .debug_str     0x00001c72       0x49 e:/softwares/quartus2/nios2eds/bin/gnu/h-i686-mingw32/bin/../lib/gcc/nios2-elf/4.7.3/../../../../../H-i686-mingw32/nios2-elf/lib/mno-hw-mul\libc.a(lib_a-fstatr.o)
                                0x611 (size before relaxing)
 .debug_str     0x00001cbb       0x40 e:/softwares/quartus2/nios2eds/bin/gnu/h-i686-mingw32/bin/../lib/gcc/nios2-elf/4.7.3/../../../../../H-i686-mingw32/nios2-elf/lib/mno-hw-mul\libc.a(lib_a-int_errno.o)
                                0x17d (size before relaxing)
 .debug_str     0x00001cfb       0x45 e:/softwares/quartus2/nios2eds/bin/gnu/h-i686-mingw32/bin/../lib/gcc/nios2-elf/4.7.3/../../../../../H-i686-mingw32/nios2-elf/lib/mno-hw-mul\libc.a(lib_a-isattyr.o)
                                0x521 (size before relaxing)
 .debug_str     0x00001d40       0x43 e:/softwares/quartus2/nios2eds/bin/gnu/h-i686-mingw32/bin/../lib/gcc/nios2-elf/4.7.3/../../../../../H-i686-mingw32/nios2-elf/lib/mno-hw-mul\libc.a(lib_a-lseekr.o)
                                0x532 (size before relaxing)
 .debug_str     0x00001d83       0x3c e:/softwares/quartus2/nios2eds/bin/gnu/h-i686-mingw32/bin/../lib/gcc/nios2-elf/4.7.3/../../../../../H-i686-mingw32/nios2-elf/lib/mno-hw-mul\libc.a(lib_a-readr.o)
                                0x52b (size before relaxing)
 .debug_str     0x00001dbf       0xd8 e:/softwares/quartus2/nios2eds/bin/gnu/h-i686-mingw32/bin/../lib/gcc/nios2-elf/4.7.3/mno-hw-mul\libgcc.a(_udivdi3.o)
                                0x204 (size before relaxing)
 .debug_str     0x00001e97        0xa e:/softwares/quartus2/nios2eds/bin/gnu/h-i686-mingw32/bin/../lib/gcc/nios2-elf/4.7.3/mno-hw-mul\libgcc.a(_umoddi3.o)
                                0x204 (size before relaxing)
 .debug_str     0x00001ea1      0x172 e:/softwares/quartus2/nios2eds/bin/gnu/h-i686-mingw32/bin/../lib/gcc/nios2-elf/4.7.3/mno-hw-mul\libgcc.a(_addsub_df.o)
                                0x2b7 (size before relaxing)
 .debug_str     0x00002013       0x40 e:/softwares/quartus2/nios2eds/bin/gnu/h-i686-mingw32/bin/../lib/gcc/nios2-elf/4.7.3/mno-hw-mul\libgcc.a(_mul_df.o)
                                0x289 (size before relaxing)
 .debug_str     0x00002053       0x35 e:/softwares/quartus2/nios2eds/bin/gnu/h-i686-mingw32/bin/../lib/gcc/nios2-elf/4.7.3/mno-hw-mul\libgcc.a(_div_df.o)
                                0x279 (size before relaxing)
 .debug_str     0x00002088       0x20 e:/softwares/quartus2/nios2eds/bin/gnu/h-i686-mingw32/bin/../lib/gcc/nios2-elf/4.7.3/mno-hw-mul\libgcc.a(_eq_df.o)
                                0x246 (size before relaxing)
 .debug_str     0x000020a8        0x8 e:/softwares/quartus2/nios2eds/bin/gnu/h-i686-mingw32/bin/../lib/gcc/nios2-elf/4.7.3/mno-hw-mul\libgcc.a(_ne_df.o)
                                0x246 (size before relaxing)
 .debug_str     0x000020b0        0x8 e:/softwares/quartus2/nios2eds/bin/gnu/h-i686-mingw32/bin/../lib/gcc/nios2-elf/4.7.3/mno-hw-mul\libgcc.a(_gt_df.o)
                                0x246 (size before relaxing)
 .debug_str     0x000020b8        0x8 e:/softwares/quartus2/nios2eds/bin/gnu/h-i686-mingw32/bin/../lib/gcc/nios2-elf/4.7.3/mno-hw-mul\libgcc.a(_ge_df.o)
                                0x246 (size before relaxing)
 .debug_str     0x000020c0        0x8 e:/softwares/quartus2/nios2eds/bin/gnu/h-i686-mingw32/bin/../lib/gcc/nios2-elf/4.7.3/mno-hw-mul\libgcc.a(_lt_df.o)
                                0x246 (size before relaxing)
 .debug_str     0x000020c8       0x21 e:/softwares/quartus2/nios2eds/bin/gnu/h-i686-mingw32/bin/../lib/gcc/nios2-elf/4.7.3/mno-hw-mul\libgcc.a(_si_to_df.o)
                                0x21c (size before relaxing)
 .debug_str     0x000020e9        0xa e:/softwares/quartus2/nios2eds/bin/gnu/h-i686-mingw32/bin/../lib/gcc/nios2-elf/4.7.3/mno-hw-mul\libgcc.a(_df_to_si.o)
                                0x23e (size before relaxing)
 .debug_str     0x00000000      0x1cf e:/softwares/quartus2/nios2eds/bin/gnu/h-i686-mingw32/bin/../lib/gcc/nios2-elf/4.7.3/mno-hw-mul\libgcc.a(_thenan_df.o)
 .debug_str     0x000020f3       0x14 e:/softwares/quartus2/nios2eds/bin/gnu/h-i686-mingw32/bin/../lib/gcc/nios2-elf/4.7.3/mno-hw-mul\libgcc.a(_usi_to_df.o)
                                0x218 (size before relaxing)
 .debug_str     0x00002107        0x9 e:/softwares/quartus2/nios2eds/bin/gnu/h-i686-mingw32/bin/../lib/gcc/nios2-elf/4.7.3/mno-hw-mul\libgcc.a(_muldi3.o)
                                0x1b0 (size before relaxing)
 .debug_str     0x00000000      0x16e e:/softwares/quartus2/nios2eds/bin/gnu/h-i686-mingw32/bin/../lib/gcc/nios2-elf/4.7.3/mno-hw-mul\libgcc.a(_clz.o)
 .debug_str     0x00000000      0x18b e:/softwares/quartus2/nios2eds/bin/gnu/h-i686-mingw32/bin/../lib/gcc/nios2-elf/4.7.3/mno-hw-mul\libgcc.a(_clzsi2.o)
 .debug_str     0x00002110        0x7 e:/softwares/quartus2/nios2eds/bin/gnu/h-i686-mingw32/bin/../lib/gcc/nios2-elf/4.7.3/mno-hw-mul\libgcc.a(_pack_df.o)
                                0x232 (size before relaxing)
 .debug_str     0x00000000      0x214 e:/softwares/quartus2/nios2eds/bin/gnu/h-i686-mingw32/bin/../lib/gcc/nios2-elf/4.7.3/mno-hw-mul\libgcc.a(_unpack_df.o)
 .debug_str     0x00000000      0x1f2 e:/softwares/quartus2/nios2eds/bin/gnu/h-i686-mingw32/bin/../lib/gcc/nios2-elf/4.7.3/mno-hw-mul\libgcc.a(_fpcmp_parts_df.o)
 .debug_str     0x00002117       0x23 e:/softwares/quartus2/nios2eds/bin/gnu/h-i686-mingw32/bin/../lib/gcc/nios2-elf/4.7.3/mno-hw-mul\libgcc.a(_lshrdi3.o)
                                0x1a2 (size before relaxing)
 .debug_str     0x0000213a        0xa e:/softwares/quartus2/nios2eds/bin/gnu/h-i686-mingw32/bin/../lib/gcc/nios2-elf/4.7.3/mno-hw-mul\libgcc.a(_ashldi3.o)
                                0x1a2 (size before relaxing)
 .debug_str     0x00002144      0x111 ../lab_crc_bsp/\libhal_bsp.a(alt_close.o)
                                0x214 (size before relaxing)
 .debug_str     0x00002255       0x50 ../lab_crc_bsp/\libhal_bsp.a(alt_dev.o)
                                0x30e (size before relaxing)
 .debug_str     0x000022a5       0x14 ../lab_crc_bsp/\libhal_bsp.a(alt_errno.o)
                                0x14e (size before relaxing)
 .debug_str     0x000022b9       0x2a ../lab_crc_bsp/\libhal_bsp.a(alt_exit.o)
                                0x15a (size before relaxing)
 .debug_str     0x000022e3       0x14 ../lab_crc_bsp/\libhal_bsp.a(alt_fstat.o)
                                0x2f5 (size before relaxing)
 .debug_str     0x000022f7       0x15 ../lab_crc_bsp/\libhal_bsp.a(alt_isatty.o)
                                0x2fd (size before relaxing)
 .debug_str     0x0000230c       0xe9 ../lab_crc_bsp/\libhal_bsp.a(alt_load.o)
                                0x21b (size before relaxing)
 .debug_str     0x000023f5       0x14 ../lab_crc_bsp/\libhal_bsp.a(alt_lseek.o)
                                0x21a (size before relaxing)
 .debug_str     0x00002409       0x44 ../lab_crc_bsp/\libhal_bsp.a(alt_main.o)
                                0x1a6 (size before relaxing)
 .debug_str     0x0000244d       0x1a ../lab_crc_bsp/\libhal_bsp.a(alt_malloc_lock.o)
                                0x4f7 (size before relaxing)
 .debug_str     0x00002467       0x13 ../lab_crc_bsp/\libhal_bsp.a(alt_read.o)
                                0x300 (size before relaxing)
 .debug_str     0x0000247a       0x28 ../lab_crc_bsp/\libhal_bsp.a(alt_release_fd.o)
                                0x1e8 (size before relaxing)
 .debug_str     0x000024a2       0x98 ../lab_crc_bsp/\libhal_bsp.a(alt_sbrk.o)
                                0x1dd (size before relaxing)
 .debug_str     0x0000253a       0x14 ../lab_crc_bsp/\libhal_bsp.a(alt_write.o)
                                0x301 (size before relaxing)
 .debug_str     0x0000254e      0x18b ../lab_crc_bsp/\libhal_bsp.a(alt_sys_init.o)
                                0x397 (size before relaxing)
 .debug_str     0x000026d9       0xac ../lab_crc_bsp/\libhal_bsp.a(altera_avalon_jtag_uart_fd.o)
                                0x3ad (size before relaxing)
 .debug_str     0x00002785       0xd1 ../lab_crc_bsp/\libhal_bsp.a(altera_avalon_jtag_uart_init.o)
                                0x341 (size before relaxing)
 .debug_str     0x00002856       0x4a ../lab_crc_bsp/\libhal_bsp.a(altera_avalon_jtag_uart_ioctl.o)
                                0x29c (size before relaxing)
 .debug_str     0x000028a0       0x48 ../lab_crc_bsp/\libhal_bsp.a(altera_avalon_jtag_uart_read.o)
                                0x2f1 (size before relaxing)
 .debug_str     0x000028e8       0x4a ../lab_crc_bsp/\libhal_bsp.a(altera_avalon_jtag_uart_write.o)
                                0x2f2 (size before relaxing)
 .debug_str     0x00002932       0x6d ../lab_crc_bsp/\libhal_bsp.a(altera_avalon_timer_sc.o)
                                0x254 (size before relaxing)
 .debug_str     0x0000299f       0x66 ../lab_crc_bsp/\libhal_bsp.a(altera_avalon_timer_ts.o)
                                0x20d (size before relaxing)
 .debug_str     0x00002a05       0x27 ../lab_crc_bsp/\libhal_bsp.a(altera_avalon_timer_vars.o)
                                0x1c2 (size before relaxing)
 .debug_str     0x00002a2c       0x5f ../lab_crc_bsp/\libhal_bsp.a(alt_alarm_start.o)
                                0x287 (size before relaxing)
 .debug_str     0x00002a8b       0x34 ../lab_crc_bsp/\libhal_bsp.a(alt_dcache_flush_all.o)
                                0x15e (size before relaxing)
 .debug_str     0x00002abf       0x34 ../lab_crc_bsp/\libhal_bsp.a(alt_dev_llist_insert.o)
                                0x1d5 (size before relaxing)
 .debug_str     0x00002af3       0x48 ../lab_crc_bsp/\libhal_bsp.a(alt_do_ctors.o)
                                 0xe5 (size before relaxing)
 .debug_str     0x00002b3b       0x4c ../lab_crc_bsp/\libhal_bsp.a(alt_do_dtors.o)
                                 0xe4 (size before relaxing)
 .debug_str     0x00002b87       0x34 ../lab_crc_bsp/\libhal_bsp.a(alt_icache_flush_all.o)
                                0x15e (size before relaxing)
 .debug_str     0x00002bbb       0xc4 ../lab_crc_bsp/\libhal_bsp.a(alt_iic.o)
                                0x247 (size before relaxing)
 .debug_str     0x00002c7f       0x4c ../lab_crc_bsp/\libhal_bsp.a(alt_iic_isr_register.o)
                                0x1f1 (size before relaxing)
 .debug_str     0x00002ccb       0x56 ../lab_crc_bsp/\libhal_bsp.a(alt_io_redirect.o)
                                0x31f (size before relaxing)
 .debug_str     0x00002d21       0x3a ../lab_crc_bsp/\libhal_bsp.a(alt_irq_handler.o)
                                0x1a0 (size before relaxing)
 .debug_str     0x00002d5b       0x17 ../lab_crc_bsp/\libhal_bsp.a(alt_irq_vars.o)
                                0x14f (size before relaxing)
 .debug_str     0x00002d72       0x29 ../lab_crc_bsp/\libhal_bsp.a(alt_open.o)
                                0x254 (size before relaxing)
 .debug_str     0x00002d9b       0x4a ../lab_crc_bsp/\libhal_bsp.a(alt_tick.o)
                                0x25b (size before relaxing)
 .debug_str     0x00002de5       0x3b ../lab_crc_bsp/\libhal_bsp.a(altera_nios2_qsys_irq.o)
                                0x165 (size before relaxing)
 .debug_str     0x00002e20       0x24 ../lab_crc_bsp/\libhal_bsp.a(alt_find_dev.o)
                                0x1f5 (size before relaxing)
 .debug_str     0x00002e44       0x26 ../lab_crc_bsp/\libhal_bsp.a(alt_find_file.o)
                                0x203 (size before relaxing)
 .debug_str     0x00002e6a       0x30 ../lab_crc_bsp/\libhal_bsp.a(alt_get_fd.o)
                                0x225 (size before relaxing)
 .debug_str     0x00002e9a       0x82 e:/softwares/quartus2/nios2eds/bin/gnu/h-i686-mingw32/bin/../lib/gcc/nios2-elf/4.7.3/../../../../../H-i686-mingw32/nios2-elf/lib/mno-hw-mul\libc.a(lib_a-atexit.o)
                                0x21d (size before relaxing)
 .debug_str     0x00002f1c       0x45 e:/softwares/quartus2/nios2eds/bin/gnu/h-i686-mingw32/bin/../lib/gcc/nios2-elf/4.7.3/../../../../../H-i686-mingw32/nios2-elf/lib/mno-hw-mul\libc.a(lib_a-memcmp.o)
                                0x184 (size before relaxing)
 .debug_str     0x00002f61       0x40 e:/softwares/quartus2/nios2eds/bin/gnu/h-i686-mingw32/bin/../lib/gcc/nios2-elf/4.7.3/../../../../../H-i686-mingw32/nios2-elf/lib/mno-hw-mul\libc.a(lib_a-__atexit.o)
                                0x581 (size before relaxing)

.debug_loc      0x00000000    0x10d9b
 *(.debug_loc)
 .debug_loc     0x00000000       0x2c obj/default/ci_crc.o
 .debug_loc     0x0000002c       0xb0 obj/default/crc.o
 .debug_loc     0x000000dc       0x2d obj/default/crc_main.o
 .debug_loc     0x00000109      0x338 e:/softwares/quartus2/nios2eds/bin/gnu/h-i686-mingw32/bin/../lib/gcc/nios2-elf/4.7.3/mno-hw-mul\libgcc.a(lib2-divmod.o)
 .debug_loc     0x00000441       0x93 e:/softwares/quartus2/nios2eds/bin/gnu/h-i686-mingw32/bin/../lib/gcc/nios2-elf/4.7.3/mno-hw-mul\libgcc.a(lib2-mul.o)
 .debug_loc     0x000004d4       0x3e e:/softwares/quartus2/nios2eds/bin/gnu/h-i686-mingw32/bin/../lib/gcc/nios2-elf/4.7.3/../../../../../H-i686-mingw32/nios2-elf/lib/mno-hw-mul\libc.a(lib_a-exit.o)
 .debug_loc     0x00000512      0x132 e:/softwares/quartus2/nios2eds/bin/gnu/h-i686-mingw32/bin/../lib/gcc/nios2-elf/4.7.3/../../../../../H-i686-mingw32/nios2-elf/lib/mno-hw-mul\libc.a(lib_a-printf.o)
 .debug_loc     0x00000644       0xd9 e:/softwares/quartus2/nios2eds/bin/gnu/h-i686-mingw32/bin/../lib/gcc/nios2-elf/4.7.3/../../../../../H-i686-mingw32/nios2-elf/lib/mno-hw-mul\libc.a(lib_a-puts.o)
 .debug_loc     0x0000071d       0x52 e:/softwares/quartus2/nios2eds/bin/gnu/h-i686-mingw32/bin/../lib/gcc/nios2-elf/4.7.3/../../../../../H-i686-mingw32/nios2-elf/lib/mno-hw-mul\libc.a(lib_a-strlen.o)
 .debug_loc     0x0000076f     0x2f0e e:/softwares/quartus2/nios2eds/bin/gnu/h-i686-mingw32/bin/../lib/gcc/nios2-elf/4.7.3/../../../../../H-i686-mingw32/nios2-elf/lib/mno-hw-mul\libc.a(lib_a-vfprintf.o)
 .debug_loc     0x0000367d       0xba e:/softwares/quartus2/nios2eds/bin/gnu/h-i686-mingw32/bin/../lib/gcc/nios2-elf/4.7.3/../../../../../H-i686-mingw32/nios2-elf/lib/mno-hw-mul\libc.a(lib_a-wsetup.o)
 .debug_loc     0x00003737      0x1e1 e:/softwares/quartus2/nios2eds/bin/gnu/h-i686-mingw32/bin/../lib/gcc/nios2-elf/4.7.3/../../../../../H-i686-mingw32/nios2-elf/lib/mno-hw-mul\libc.a(lib_a-__call_atexit.o)
 .debug_loc     0x00003918     0x225e e:/softwares/quartus2/nios2eds/bin/gnu/h-i686-mingw32/bin/../lib/gcc/nios2-elf/4.7.3/../../../../../H-i686-mingw32/nios2-elf/lib/mno-hw-mul\libc.a(lib_a-dtoa.o)
 .debug_loc     0x00005b76      0x259 e:/softwares/quartus2/nios2eds/bin/gnu/h-i686-mingw32/bin/../lib/gcc/nios2-elf/4.7.3/../../../../../H-i686-mingw32/nios2-elf/lib/mno-hw-mul\libc.a(lib_a-fflush.o)
 .debug_loc     0x00005dcf      0x2a7 e:/softwares/quartus2/nios2eds/bin/gnu/h-i686-mingw32/bin/../lib/gcc/nios2-elf/4.7.3/../../../../../H-i686-mingw32/nios2-elf/lib/mno-hw-mul\libc.a(lib_a-findfp.o)
 .debug_loc     0x00006076      0x668 e:/softwares/quartus2/nios2eds/bin/gnu/h-i686-mingw32/bin/../lib/gcc/nios2-elf/4.7.3/../../../../../H-i686-mingw32/nios2-elf/lib/mno-hw-mul\libc.a(lib_a-freer.o)
 .debug_loc     0x000066de      0x50c e:/softwares/quartus2/nios2eds/bin/gnu/h-i686-mingw32/bin/../lib/gcc/nios2-elf/4.7.3/../../../../../H-i686-mingw32/nios2-elf/lib/mno-hw-mul\libc.a(lib_a-fvwrite.o)
 .debug_loc     0x00006bea      0x2ae e:/softwares/quartus2/nios2eds/bin/gnu/h-i686-mingw32/bin/../lib/gcc/nios2-elf/4.7.3/../../../../../H-i686-mingw32/nios2-elf/lib/mno-hw-mul\libc.a(lib_a-fwalk.o)
 .debug_loc     0x00006e98      0x13e e:/softwares/quartus2/nios2eds/bin/gnu/h-i686-mingw32/bin/../lib/gcc/nios2-elf/4.7.3/../../../../../H-i686-mingw32/nios2-elf/lib/mno-hw-mul\libc.a(lib_a-locale.o)
 .debug_loc     0x00006fd6      0x16a e:/softwares/quartus2/nios2eds/bin/gnu/h-i686-mingw32/bin/../lib/gcc/nios2-elf/4.7.3/../../../../../H-i686-mingw32/nios2-elf/lib/mno-hw-mul\libc.a(lib_a-makebuf.o)
 .debug_loc     0x00007140      0xb50 e:/softwares/quartus2/nios2eds/bin/gnu/h-i686-mingw32/bin/../lib/gcc/nios2-elf/4.7.3/../../../../../H-i686-mingw32/nios2-elf/lib/mno-hw-mul\libc.a(lib_a-mallocr.o)
 .debug_loc     0x00007c90      0x239 e:/softwares/quartus2/nios2eds/bin/gnu/h-i686-mingw32/bin/../lib/gcc/nios2-elf/4.7.3/../../../../../H-i686-mingw32/nios2-elf/lib/mno-hw-mul\libc.a(lib_a-memchr.o)
 .debug_loc     0x00007ec9      0x29c e:/softwares/quartus2/nios2eds/bin/gnu/h-i686-mingw32/bin/../lib/gcc/nios2-elf/4.7.3/../../../../../H-i686-mingw32/nios2-elf/lib/mno-hw-mul\libc.a(lib_a-memcpy.o)
 .debug_loc     0x00008165      0x301 e:/softwares/quartus2/nios2eds/bin/gnu/h-i686-mingw32/bin/../lib/gcc/nios2-elf/4.7.3/../../../../../H-i686-mingw32/nios2-elf/lib/mno-hw-mul\libc.a(lib_a-memmove.o)
 .debug_loc     0x00008466      0x1b7 e:/softwares/quartus2/nios2eds/bin/gnu/h-i686-mingw32/bin/../lib/gcc/nios2-elf/4.7.3/../../../../../H-i686-mingw32/nios2-elf/lib/mno-hw-mul\libc.a(lib_a-memset.o)
 .debug_loc     0x0000861d     0x1b8a e:/softwares/quartus2/nios2eds/bin/gnu/h-i686-mingw32/bin/../lib/gcc/nios2-elf/4.7.3/../../../../../H-i686-mingw32/nios2-elf/lib/mno-hw-mul\libc.a(lib_a-mprec.o)
 .debug_loc     0x0000a1a7     0x1136 e:/softwares/quartus2/nios2eds/bin/gnu/h-i686-mingw32/bin/../lib/gcc/nios2-elf/4.7.3/../../../../../H-i686-mingw32/nios2-elf/lib/mno-hw-mul\libc.a(lib_a-reallocr.o)
 .debug_loc     0x0000b2dd       0x88 e:/softwares/quartus2/nios2eds/bin/gnu/h-i686-mingw32/bin/../lib/gcc/nios2-elf/4.7.3/../../../../../H-i686-mingw32/nios2-elf/lib/mno-hw-mul\libc.a(lib_a-s_isinfd.o)
 .debug_loc     0x0000b365       0xa5 e:/softwares/quartus2/nios2eds/bin/gnu/h-i686-mingw32/bin/../lib/gcc/nios2-elf/4.7.3/../../../../../H-i686-mingw32/nios2-elf/lib/mno-hw-mul\libc.a(lib_a-s_isnand.o)
 .debug_loc     0x0000b40a       0x86 e:/softwares/quartus2/nios2eds/bin/gnu/h-i686-mingw32/bin/../lib/gcc/nios2-elf/4.7.3/../../../../../H-i686-mingw32/nios2-elf/lib/mno-hw-mul\libc.a(lib_a-sbrkr.o)
 .debug_loc     0x0000b490      0x379 e:/softwares/quartus2/nios2eds/bin/gnu/h-i686-mingw32/bin/../lib/gcc/nios2-elf/4.7.3/../../../../../H-i686-mingw32/nios2-elf/lib/mno-hw-mul\libc.a(lib_a-stdio.o)
 .debug_loc     0x0000b809       0xb0 e:/softwares/quartus2/nios2eds/bin/gnu/h-i686-mingw32/bin/../lib/gcc/nios2-elf/4.7.3/../../../../../H-i686-mingw32/nios2-elf/lib/mno-hw-mul\libc.a(lib_a-strcmp.o)
 .debug_loc     0x0000b8b9       0xde e:/softwares/quartus2/nios2eds/bin/gnu/h-i686-mingw32/bin/../lib/gcc/nios2-elf/4.7.3/../../../../../H-i686-mingw32/nios2-elf/lib/mno-hw-mul\libc.a(lib_a-writer.o)
 .debug_loc     0x0000b997      0x259 e:/softwares/quartus2/nios2eds/bin/gnu/h-i686-mingw32/bin/../lib/gcc/nios2-elf/4.7.3/../../../../../H-i686-mingw32/nios2-elf/lib/mno-hw-mul\libc.a(lib_a-callocr.o)
 .debug_loc     0x0000bbf0       0x86 e:/softwares/quartus2/nios2eds/bin/gnu/h-i686-mingw32/bin/../lib/gcc/nios2-elf/4.7.3/../../../../../H-i686-mingw32/nios2-elf/lib/mno-hw-mul\libc.a(lib_a-closer.o)
 .debug_loc     0x0000bc76      0x136 e:/softwares/quartus2/nios2eds/bin/gnu/h-i686-mingw32/bin/../lib/gcc/nios2-elf/4.7.3/../../../../../H-i686-mingw32/nios2-elf/lib/mno-hw-mul\libc.a(lib_a-fclose.o)
 .debug_loc     0x0000bdac       0xb2 e:/softwares/quartus2/nios2eds/bin/gnu/h-i686-mingw32/bin/../lib/gcc/nios2-elf/4.7.3/../../../../../H-i686-mingw32/nios2-elf/lib/mno-hw-mul\libc.a(lib_a-fstatr.o)
 .debug_loc     0x0000be5e       0x86 e:/softwares/quartus2/nios2eds/bin/gnu/h-i686-mingw32/bin/../lib/gcc/nios2-elf/4.7.3/../../../../../H-i686-mingw32/nios2-elf/lib/mno-hw-mul\libc.a(lib_a-isattyr.o)
 .debug_loc     0x0000bee4       0xde e:/softwares/quartus2/nios2eds/bin/gnu/h-i686-mingw32/bin/../lib/gcc/nios2-elf/4.7.3/../../../../../H-i686-mingw32/nios2-elf/lib/mno-hw-mul\libc.a(lib_a-lseekr.o)
 .debug_loc     0x0000bfc2       0xde e:/softwares/quartus2/nios2eds/bin/gnu/h-i686-mingw32/bin/../lib/gcc/nios2-elf/4.7.3/../../../../../H-i686-mingw32/nios2-elf/lib/mno-hw-mul\libc.a(lib_a-readr.o)
 .debug_loc     0x0000c0a0     0x1202 e:/softwares/quartus2/nios2eds/bin/gnu/h-i686-mingw32/bin/../lib/gcc/nios2-elf/4.7.3/mno-hw-mul\libgcc.a(_udivdi3.o)
 .debug_loc     0x0000d2a2     0x10d6 e:/softwares/quartus2/nios2eds/bin/gnu/h-i686-mingw32/bin/../lib/gcc/nios2-elf/4.7.3/mno-hw-mul\libgcc.a(_umoddi3.o)
 .debug_loc     0x0000e378      0x7a1 e:/softwares/quartus2/nios2eds/bin/gnu/h-i686-mingw32/bin/../lib/gcc/nios2-elf/4.7.3/mno-hw-mul\libgcc.a(_addsub_df.o)
 .debug_loc     0x0000eb19      0x3ba e:/softwares/quartus2/nios2eds/bin/gnu/h-i686-mingw32/bin/../lib/gcc/nios2-elf/4.7.3/mno-hw-mul\libgcc.a(_mul_df.o)
 .debug_loc     0x0000eed3      0x25e e:/softwares/quartus2/nios2eds/bin/gnu/h-i686-mingw32/bin/../lib/gcc/nios2-elf/4.7.3/mno-hw-mul\libgcc.a(_div_df.o)
 .debug_loc     0x0000f131       0x70 e:/softwares/quartus2/nios2eds/bin/gnu/h-i686-mingw32/bin/../lib/gcc/nios2-elf/4.7.3/mno-hw-mul\libgcc.a(_eq_df.o)
 .debug_loc     0x0000f1a1       0x70 e:/softwares/quartus2/nios2eds/bin/gnu/h-i686-mingw32/bin/../lib/gcc/nios2-elf/4.7.3/mno-hw-mul\libgcc.a(_ne_df.o)
 .debug_loc     0x0000f211       0x70 e:/softwares/quartus2/nios2eds/bin/gnu/h-i686-mingw32/bin/../lib/gcc/nios2-elf/4.7.3/mno-hw-mul\libgcc.a(_gt_df.o)
 .debug_loc     0x0000f281       0x70 e:/softwares/quartus2/nios2eds/bin/gnu/h-i686-mingw32/bin/../lib/gcc/nios2-elf/4.7.3/mno-hw-mul\libgcc.a(_ge_df.o)
 .debug_loc     0x0000f2f1       0x70 e:/softwares/quartus2/nios2eds/bin/gnu/h-i686-mingw32/bin/../lib/gcc/nios2-elf/4.7.3/mno-hw-mul\libgcc.a(_lt_df.o)
 .debug_loc     0x0000f361       0xd3 e:/softwares/quartus2/nios2eds/bin/gnu/h-i686-mingw32/bin/../lib/gcc/nios2-elf/4.7.3/mno-hw-mul\libgcc.a(_si_to_df.o)
 .debug_loc     0x0000f434       0xce e:/softwares/quartus2/nios2eds/bin/gnu/h-i686-mingw32/bin/../lib/gcc/nios2-elf/4.7.3/mno-hw-mul\libgcc.a(_df_to_si.o)
 .debug_loc     0x0000f502      0x168 e:/softwares/quartus2/nios2eds/bin/gnu/h-i686-mingw32/bin/../lib/gcc/nios2-elf/4.7.3/mno-hw-mul\libgcc.a(_usi_to_df.o)
 .debug_loc     0x0000f66a      0x1a8 e:/softwares/quartus2/nios2eds/bin/gnu/h-i686-mingw32/bin/../lib/gcc/nios2-elf/4.7.3/mno-hw-mul\libgcc.a(_muldi3.o)
 .debug_loc     0x0000f812      0x19a e:/softwares/quartus2/nios2eds/bin/gnu/h-i686-mingw32/bin/../lib/gcc/nios2-elf/4.7.3/mno-hw-mul\libgcc.a(_clzsi2.o)
 .debug_loc     0x0000f9ac      0x2ae e:/softwares/quartus2/nios2eds/bin/gnu/h-i686-mingw32/bin/../lib/gcc/nios2-elf/4.7.3/mno-hw-mul\libgcc.a(_pack_df.o)
 .debug_loc     0x0000fc5a      0x179 e:/softwares/quartus2/nios2eds/bin/gnu/h-i686-mingw32/bin/../lib/gcc/nios2-elf/4.7.3/mno-hw-mul\libgcc.a(_unpack_df.o)
 .debug_loc     0x0000fdd3       0x7c e:/softwares/quartus2/nios2eds/bin/gnu/h-i686-mingw32/bin/../lib/gcc/nios2-elf/4.7.3/mno-hw-mul\libgcc.a(_fpcmp_parts_df.o)
 .debug_loc     0x0000fe4f       0xc4 e:/softwares/quartus2/nios2eds/bin/gnu/h-i686-mingw32/bin/../lib/gcc/nios2-elf/4.7.3/mno-hw-mul\libgcc.a(_lshrdi3.o)
 .debug_loc     0x0000ff13       0xc4 e:/softwares/quartus2/nios2eds/bin/gnu/h-i686-mingw32/bin/../lib/gcc/nios2-elf/4.7.3/mno-hw-mul\libgcc.a(_ashldi3.o)
 .debug_loc     0x0000ffd7       0x58 ../lab_crc_bsp/\libhal_bsp.a(alt_close.o)
 .debug_loc     0x0001002f       0x2c ../lab_crc_bsp/\libhal_bsp.a(alt_dev.o)
 .debug_loc     0x0001005b       0x2c ../lab_crc_bsp/\libhal_bsp.a(alt_exit.o)
 .debug_loc     0x00010087       0x58 ../lab_crc_bsp/\libhal_bsp.a(alt_fstat.o)
 .debug_loc     0x000100df       0x59 ../lab_crc_bsp/\libhal_bsp.a(alt_isatty.o)
 .debug_loc     0x00010138       0x58 ../lab_crc_bsp/\libhal_bsp.a(alt_load.o)
 .debug_loc     0x00010190       0x58 ../lab_crc_bsp/\libhal_bsp.a(alt_lseek.o)
 .debug_loc     0x000101e8       0x2c ../lab_crc_bsp/\libhal_bsp.a(alt_main.o)
 .debug_loc     0x00010214       0x58 ../lab_crc_bsp/\libhal_bsp.a(alt_malloc_lock.o)
 .debug_loc     0x0001026c       0x58 ../lab_crc_bsp/\libhal_bsp.a(alt_read.o)
 .debug_loc     0x000102c4       0x2c ../lab_crc_bsp/\libhal_bsp.a(alt_release_fd.o)
 .debug_loc     0x000102f0       0x2c ../lab_crc_bsp/\libhal_bsp.a(alt_sbrk.o)
 .debug_loc     0x0001031c       0x58 ../lab_crc_bsp/\libhal_bsp.a(alt_write.o)
 .debug_loc     0x00010374       0x84 ../lab_crc_bsp/\libhal_bsp.a(alt_sys_init.o)
 .debug_loc     0x000103f8       0xb0 ../lab_crc_bsp/\libhal_bsp.a(altera_avalon_jtag_uart_fd.o)
 .debug_loc     0x000104a8       0xb0 ../lab_crc_bsp/\libhal_bsp.a(altera_avalon_jtag_uart_init.o)
 .debug_loc     0x00010558       0x2c ../lab_crc_bsp/\libhal_bsp.a(altera_avalon_jtag_uart_ioctl.o)
 .debug_loc     0x00010584       0x2c ../lab_crc_bsp/\libhal_bsp.a(altera_avalon_jtag_uart_read.o)
 .debug_loc     0x000105b0       0x2c ../lab_crc_bsp/\libhal_bsp.a(altera_avalon_jtag_uart_write.o)
 .debug_loc     0x000105dc       0x58 ../lab_crc_bsp/\libhal_bsp.a(altera_avalon_timer_sc.o)
 .debug_loc     0x00010634       0x84 ../lab_crc_bsp/\libhal_bsp.a(altera_avalon_timer_ts.o)
 .debug_loc     0x000106b8       0x2c ../lab_crc_bsp/\libhal_bsp.a(alt_alarm_start.o)
 .debug_loc     0x000106e4       0x2c ../lab_crc_bsp/\libhal_bsp.a(alt_dcache_flush_all.o)
 .debug_loc     0x00010710       0x58 ../lab_crc_bsp/\libhal_bsp.a(alt_dev_llist_insert.o)
 .debug_loc     0x00010768       0x2c ../lab_crc_bsp/\libhal_bsp.a(alt_do_ctors.o)
 .debug_loc     0x00010794       0x2c ../lab_crc_bsp/\libhal_bsp.a(alt_do_dtors.o)
 .debug_loc     0x000107c0       0x2c ../lab_crc_bsp/\libhal_bsp.a(alt_icache_flush_all.o)
 .debug_loc     0x000107ec       0xb0 ../lab_crc_bsp/\libhal_bsp.a(alt_iic.o)
 .debug_loc     0x0001089c       0x2c ../lab_crc_bsp/\libhal_bsp.a(alt_iic_isr_register.o)
 .debug_loc     0x000108c8       0x58 ../lab_crc_bsp/\libhal_bsp.a(alt_io_redirect.o)
 .debug_loc     0x00010920       0x2c ../lab_crc_bsp/\libhal_bsp.a(alt_irq_handler.o)
 .debug_loc     0x0001094c       0x84 ../lab_crc_bsp/\libhal_bsp.a(alt_open.o)
 .debug_loc     0x000109d0       0x58 ../lab_crc_bsp/\libhal_bsp.a(alt_tick.o)
 .debug_loc     0x00010a28       0x2c ../lab_crc_bsp/\libhal_bsp.a(altera_nios2_qsys_irq.o)
 .debug_loc     0x00010a54       0x2c ../lab_crc_bsp/\libhal_bsp.a(alt_find_dev.o)
 .debug_loc     0x00010a80       0x2c ../lab_crc_bsp/\libhal_bsp.a(alt_find_file.o)
 .debug_loc     0x00010aac       0x2c ../lab_crc_bsp/\libhal_bsp.a(alt_get_fd.o)
 .debug_loc     0x00010ad8       0x2c e:/softwares/quartus2/nios2eds/bin/gnu/h-i686-mingw32/bin/../lib/gcc/nios2-elf/4.7.3/../../../../../H-i686-mingw32/nios2-elf/lib/mno-hw-mul\libc.a(lib_a-atexit.o)
 .debug_loc     0x00010b04      0x103 e:/softwares/quartus2/nios2eds/bin/gnu/h-i686-mingw32/bin/../lib/gcc/nios2-elf/4.7.3/../../../../../H-i686-mingw32/nios2-elf/lib/mno-hw-mul\libc.a(lib_a-memcmp.o)
 .debug_loc     0x00010c07      0x194 e:/softwares/quartus2/nios2eds/bin/gnu/h-i686-mingw32/bin/../lib/gcc/nios2-elf/4.7.3/../../../../../H-i686-mingw32/nios2-elf/lib/mno-hw-mul\libc.a(lib_a-__atexit.o)

.debug_macinfo
 *(.debug_macinfo)

.debug_weaknames
 *(.debug_weaknames)

.debug_funcnames
 *(.debug_funcnames)

.debug_typenames
 *(.debug_typenames)

.debug_varnames
 *(.debug_varnames)

.debug_alt_sim_info
                0x00000000       0x10
 *(.debug_alt_sim_info)
 .debug_alt_sim_info
                0x00000000       0x10 ../lab_crc_bsp//obj/HAL/src/crt0.o
                0x08000000                __alt_data_end = 0x8000000
                0x08000000                PROVIDE (__alt_stack_pointer, __alt_data_end)
                0x000131f0                PROVIDE (__alt_stack_limit, __alt_stack_base)
                0x000131f0                PROVIDE (__alt_heap_start, end)
                0x08000000                PROVIDE (__alt_heap_limit, 0x8000000)
OUTPUT(lab_crc.elf elf32-littlenios2)

.debug_ranges   0x00000000      0xa98
 .debug_ranges  0x00000000       0x20 ../lab_crc_bsp//obj/HAL/src/crt0.o
 .debug_ranges  0x00000020      0x150 e:/softwares/quartus2/nios2eds/bin/gnu/h-i686-mingw32/bin/../lib/gcc/nios2-elf/4.7.3/../../../../../H-i686-mingw32/nios2-elf/lib/mno-hw-mul\libc.a(lib_a-vfprintf.o)
 .debug_ranges  0x00000170       0x18 e:/softwares/quartus2/nios2eds/bin/gnu/h-i686-mingw32/bin/../lib/gcc/nios2-elf/4.7.3/../../../../../H-i686-mingw32/nios2-elf/lib/mno-hw-mul\libc.a(lib_a-__call_atexit.o)
 .debug_ranges  0x00000188       0x20 e:/softwares/quartus2/nios2eds/bin/gnu/h-i686-mingw32/bin/../lib/gcc/nios2-elf/4.7.3/../../../../../H-i686-mingw32/nios2-elf/lib/mno-hw-mul\libc.a(lib_a-fflush.o)
 .debug_ranges  0x000001a8       0x18 e:/softwares/quartus2/nios2eds/bin/gnu/h-i686-mingw32/bin/../lib/gcc/nios2-elf/4.7.3/../../../../../H-i686-mingw32/nios2-elf/lib/mno-hw-mul\libc.a(lib_a-fvwrite.o)
 .debug_ranges  0x000001c0       0x80 e:/softwares/quartus2/nios2eds/bin/gnu/h-i686-mingw32/bin/../lib/gcc/nios2-elf/4.7.3/../../../../../H-i686-mingw32/nios2-elf/lib/mno-hw-mul\libc.a(lib_a-fwalk.o)
 .debug_ranges  0x00000240       0x70 e:/softwares/quartus2/nios2eds/bin/gnu/h-i686-mingw32/bin/../lib/gcc/nios2-elf/4.7.3/../../../../../H-i686-mingw32/nios2-elf/lib/mno-hw-mul\libc.a(lib_a-mallocr.o)
 .debug_ranges  0x000002b0       0x40 e:/softwares/quartus2/nios2eds/bin/gnu/h-i686-mingw32/bin/../lib/gcc/nios2-elf/4.7.3/../../../../../H-i686-mingw32/nios2-elf/lib/mno-hw-mul\libc.a(lib_a-mprec.o)
 .debug_ranges  0x000002f0      0x158 e:/softwares/quartus2/nios2eds/bin/gnu/h-i686-mingw32/bin/../lib/gcc/nios2-elf/4.7.3/../../../../../H-i686-mingw32/nios2-elf/lib/mno-hw-mul\libc.a(lib_a-reallocr.o)
 .debug_ranges  0x00000448       0x48 e:/softwares/quartus2/nios2eds/bin/gnu/h-i686-mingw32/bin/../lib/gcc/nios2-elf/4.7.3/../../../../../H-i686-mingw32/nios2-elf/lib/mno-hw-mul\libc.a(lib_a-callocr.o)
 .debug_ranges  0x00000490      0x1a0 e:/softwares/quartus2/nios2eds/bin/gnu/h-i686-mingw32/bin/../lib/gcc/nios2-elf/4.7.3/mno-hw-mul\libgcc.a(_udivdi3.o)
 .debug_ranges  0x00000630      0x160 e:/softwares/quartus2/nios2eds/bin/gnu/h-i686-mingw32/bin/../lib/gcc/nios2-elf/4.7.3/mno-hw-mul\libgcc.a(_umoddi3.o)
 .debug_ranges  0x00000790       0x38 e:/softwares/quartus2/nios2eds/bin/gnu/h-i686-mingw32/bin/../lib/gcc/nios2-elf/4.7.3/mno-hw-mul\libgcc.a(_addsub_df.o)
 .debug_ranges  0x000007c8       0x78 e:/softwares/quartus2/nios2eds/bin/gnu/h-i686-mingw32/bin/../lib/gcc/nios2-elf/4.7.3/mno-hw-mul\libgcc.a(_mul_df.o)
 .debug_ranges  0x00000840       0x50 e:/softwares/quartus2/nios2eds/bin/gnu/h-i686-mingw32/bin/../lib/gcc/nios2-elf/4.7.3/mno-hw-mul\libgcc.a(_div_df.o)
 .debug_ranges  0x00000890       0x30 e:/softwares/quartus2/nios2eds/bin/gnu/h-i686-mingw32/bin/../lib/gcc/nios2-elf/4.7.3/mno-hw-mul\libgcc.a(_si_to_df.o)
 .debug_ranges  0x000008c0       0x48 e:/softwares/quartus2/nios2eds/bin/gnu/h-i686-mingw32/bin/../lib/gcc/nios2-elf/4.7.3/mno-hw-mul\libgcc.a(_usi_to_df.o)
 .debug_ranges  0x00000908       0x70 e:/softwares/quartus2/nios2eds/bin/gnu/h-i686-mingw32/bin/../lib/gcc/nios2-elf/4.7.3/mno-hw-mul\libgcc.a(_muldi3.o)
 .debug_ranges  0x00000978       0x28 e:/softwares/quartus2/nios2eds/bin/gnu/h-i686-mingw32/bin/../lib/gcc/nios2-elf/4.7.3/mno-hw-mul\libgcc.a(_clzsi2.o)
 .debug_ranges  0x000009a0       0x18 e:/softwares/quartus2/nios2eds/bin/gnu/h-i686-mingw32/bin/../lib/gcc/nios2-elf/4.7.3/mno-hw-mul\libgcc.a(_pack_df.o)
 .debug_ranges  0x000009b8       0x30 ../lab_crc_bsp/\libhal_bsp.a(altera_avalon_jtag_uart_init.o)
 .debug_ranges  0x000009e8       0x18 ../lab_crc_bsp/\libhal_bsp.a(altera_avalon_jtag_uart_read.o)
 .debug_ranges  0x00000a00       0x30 ../lab_crc_bsp/\libhal_bsp.a(alt_iic.o)
 .debug_ranges  0x00000a30       0x28 ../lab_crc_bsp/\libhal_bsp.a(alt_irq_entry.o)
 .debug_ranges  0x00000a58       0x10 ../lab_crc_bsp/\libhal_bsp.a(alt_irq_handler.o)
 .debug_ranges  0x00000a68       0x30 ../lab_crc_bsp/\libhal_bsp.a(alt_exception_entry.o)
